; Listing generated by Microsoft (R) Optimizing Compiler Version 16.00.40219.01 

include listing.inc

INCLUDELIB OLDNAMES

PUBLIC	??$_Pow_int@M@@YAMMH@Z				; _Pow_int<float>
PUBLIC	?pow@@YAMMH@Z					; pow
PUBLIC	??$_Pow_int@N@@YANNH@Z				; _Pow_int<double>
PUBLIC	?pow@@YANNH@Z					; pow
PUBLIC	?sqrt@@YAMM@Z					; sqrt
PUBLIC	?vector_sub@@YA?ATcl_float4@@T1@0@Z		; vector_sub
PUBLIC	?vector_add@@YA?ATcl_float4@@T1@0@Z		; vector_add
PUBLIC	?vector_mul@@YA?ATcl_float4@@T1@0@Z		; vector_mul
PUBLIC	?vector_scalar_mul@@YA?ATcl_float4@@T1@M@Z	; vector_scalar_mul
PUBLIC	?exp@@YAMM@Z					; exp
PUBLIC	?create_float4@@YA?ATcl_float4@@MMMM@Z		; create_float4
PUBLIC	?vector_exp@@YA?ATcl_float4@@T1@@Z		; vector_exp
EXTRN	__imp_sqrtf:PROC
EXTRN	__imp_expf:PROC
$SG-419	DB	'Done', 0aH, 00H
	ORG $+4
$SG-417	DB	'Starting NO-OCL raytrace..', 0aH, 00H
	ORG $+4
$SG-418	DB	'Error: Failed to allocate queue memory.', 0aH, 00H
	ORG $+7
$SG-420	DB	'Elapsed time: %f s', 0aH, 00H
PUBLIC	__real@3f800000
;	COMDAT pdata
; File c:\program files (x86)\microsoft visual studio 10.0\vc\include\math.h
pdata	SEGMENT
$pdata$??$_Pow_int@M@@YAMMH@Z DD imagerel $LN12
	DD	imagerel $LN12+194
	DD	imagerel $unwind$??$_Pow_int@M@@YAMMH@Z
pdata	ENDS
;	COMDAT xdata
xdata	SEGMENT
$unwind$??$_Pow_int@M@@YAMMH@Z DD 021e01H
	DD	0700b320fH
xdata	ENDS
;	COMDAT __real@3f800000
CONST	SEGMENT
__real@3f800000 DD 03f800000r			; 1
; Function compile flags: /Odtp /RTCsu
CONST	ENDS
;	COMDAT ??$_Pow_int@M@@YAMMH@Z
_TEXT	SEGMENT
_N$ = 16
_Z$7356 = 20
tv74 = 24
_X$ = 48
_Y$ = 56
??$_Pow_int@M@@YAMMH@Z PROC				; _Pow_int<float>, COMDAT
; Line 484
$LN12:
	mov	DWORD PTR [rsp+16], edx
	movss	DWORD PTR [rsp+8], xmm0
	push	rdi
	sub	rsp, 32					; 00000020H
	mov	rdi, rsp
	mov	ecx, 8
	mov	eax, -858993460				; ccccccccH
	rep stosd
; Line 485
	cmp	DWORD PTR _Y$[rsp], 0
	jl	SHORT $LN7@Pow_int
; Line 486
	mov	eax, DWORD PTR _Y$[rsp]
	mov	DWORD PTR _N$[rsp], eax
; Line 487
	jmp	SHORT $LN6@Pow_int
$LN7@Pow_int:
; Line 488
	mov	eax, DWORD PTR _Y$[rsp]
	neg	eax
	mov	DWORD PTR _N$[rsp], eax
$LN6@Pow_int:
; Line 489
	movss	xmm0, DWORD PTR __real@3f800000
	movss	DWORD PTR _Z$7356[rsp], xmm0
	jmp	SHORT $LN5@Pow_int
$LN4@Pow_int:
	movss	xmm0, DWORD PTR _X$[rsp]
	mulss	xmm0, DWORD PTR _X$[rsp]
	movss	DWORD PTR _X$[rsp], xmm0
$LN5@Pow_int:
; Line 490
	mov	eax, DWORD PTR _N$[rsp]
	and	eax, 1
	test	eax, eax
	je	SHORT $LN2@Pow_int
; Line 491
	movss	xmm0, DWORD PTR _Z$7356[rsp]
	mulss	xmm0, DWORD PTR _X$[rsp]
	movss	DWORD PTR _Z$7356[rsp], xmm0
$LN2@Pow_int:
; Line 492
	mov	eax, DWORD PTR _N$[rsp]
	shr	eax, 1
	mov	DWORD PTR _N$[rsp], eax
	cmp	DWORD PTR _N$[rsp], 0
	jne	SHORT $LN1@Pow_int
; Line 493
	cmp	DWORD PTR _Y$[rsp], 0
	jge	SHORT $LN10@Pow_int
	movss	xmm0, DWORD PTR __real@3f800000
	divss	xmm0, DWORD PTR _Z$7356[rsp]
	movss	DWORD PTR tv74[rsp], xmm0
	jmp	SHORT $LN11@Pow_int
$LN10@Pow_int:
	movss	xmm0, DWORD PTR _Z$7356[rsp]
	movss	DWORD PTR tv74[rsp], xmm0
$LN11@Pow_int:
	movss	xmm0, DWORD PTR tv74[rsp]
	jmp	SHORT $LN8@Pow_int
$LN1@Pow_int:
	jmp	SHORT $LN4@Pow_int
$LN8@Pow_int:
	add	rsp, 32					; 00000020H
	pop	rdi
	ret	0
??$_Pow_int@M@@YAMMH@Z ENDP				; _Pow_int<float>
_TEXT	ENDS
PUBLIC	__real@3ff0000000000000
;	COMDAT pdata
pdata	SEGMENT
$pdata$??$_Pow_int@N@@YANNH@Z DD imagerel $LN12
	DD	imagerel $LN12+194
	DD	imagerel $unwind$??$_Pow_int@N@@YANNH@Z
pdata	ENDS
;	COMDAT xdata
xdata	SEGMENT
$unwind$??$_Pow_int@N@@YANNH@Z DD 021e01H
	DD	0700b520fH
xdata	ENDS
;	COMDAT __real@3ff0000000000000
CONST	SEGMENT
__real@3ff0000000000000 DQ 03ff0000000000000r	; 1
; Function compile flags: /Odtp /RTCsu
CONST	ENDS
;	COMDAT ??$_Pow_int@N@@YANNH@Z
_TEXT	SEGMENT
_N$ = 16
_Z$7344 = 24
tv74 = 32
_X$ = 64
_Y$ = 72
??$_Pow_int@N@@YANNH@Z PROC				; _Pow_int<double>, COMDAT
; Line 484
$LN12:
	mov	DWORD PTR [rsp+16], edx
	movsdx	QWORD PTR [rsp+8], xmm0
	push	rdi
	sub	rsp, 48					; 00000030H
	mov	rdi, rsp
	mov	ecx, 12
	mov	eax, -858993460				; ccccccccH
	rep stosd
; Line 485
	cmp	DWORD PTR _Y$[rsp], 0
	jl	SHORT $LN7@Pow_int@2
; Line 486
	mov	eax, DWORD PTR _Y$[rsp]
	mov	DWORD PTR _N$[rsp], eax
; Line 487
	jmp	SHORT $LN6@Pow_int@2
$LN7@Pow_int@2:
; Line 488
	mov	eax, DWORD PTR _Y$[rsp]
	neg	eax
	mov	DWORD PTR _N$[rsp], eax
$LN6@Pow_int@2:
; Line 489
	movsdx	xmm0, QWORD PTR __real@3ff0000000000000
	movsdx	QWORD PTR _Z$7344[rsp], xmm0
	jmp	SHORT $LN5@Pow_int@2
$LN4@Pow_int@2:
	movsdx	xmm0, QWORD PTR _X$[rsp]
	mulsd	xmm0, QWORD PTR _X$[rsp]
	movsdx	QWORD PTR _X$[rsp], xmm0
$LN5@Pow_int@2:
; Line 490
	mov	eax, DWORD PTR _N$[rsp]
	and	eax, 1
	test	eax, eax
	je	SHORT $LN2@Pow_int@2
; Line 491
	movsdx	xmm0, QWORD PTR _Z$7344[rsp]
	mulsd	xmm0, QWORD PTR _X$[rsp]
	movsdx	QWORD PTR _Z$7344[rsp], xmm0
$LN2@Pow_int@2:
; Line 492
	mov	eax, DWORD PTR _N$[rsp]
	shr	eax, 1
	mov	DWORD PTR _N$[rsp], eax
	cmp	DWORD PTR _N$[rsp], 0
	jne	SHORT $LN1@Pow_int@2
; Line 493
	cmp	DWORD PTR _Y$[rsp], 0
	jge	SHORT $LN10@Pow_int@2
	movsdx	xmm0, QWORD PTR __real@3ff0000000000000
	divsd	xmm0, QWORD PTR _Z$7344[rsp]
	movsdx	QWORD PTR tv74[rsp], xmm0
	jmp	SHORT $LN11@Pow_int@2
$LN10@Pow_int@2:
	movsdx	xmm0, QWORD PTR _Z$7344[rsp]
	movsdx	QWORD PTR tv74[rsp], xmm0
$LN11@Pow_int@2:
	movsdx	xmm0, QWORD PTR tv74[rsp]
	jmp	SHORT $LN8@Pow_int@2
$LN1@Pow_int@2:
	jmp	SHORT $LN4@Pow_int@2
$LN8@Pow_int@2:
	add	rsp, 48					; 00000030H
	pop	rdi
	ret	0
??$_Pow_int@N@@YANNH@Z ENDP				; _Pow_int<double>
_TEXT	ENDS
PUBLIC	__$ArrayPad$
;	COMDAT pdata
; File c:\users\mark\documents\visual studio projects\raytracing projects\opencl_raytracer\opencl_raytracer\raytracer\opencl raytracer\raytracer_no_opencl.c
pdata	SEGMENT
$pdata$?create_float4@@YA?ATcl_float4@@MMMM@Z DD imagerel $LN3
	DD	imagerel $LN3+199
	DD	imagerel $unwind$?create_float4@@YA?ATcl_float4@@MMMM@Z
pdata	ENDS
;	COMDAT xdata
xdata	SEGMENT
$unwind$?create_float4@@YA?ATcl_float4@@MMMM@Z DD 034319H
	DD	07019c21dH
	DD	06018H
	DD	imagerel __GSHandlerCheck
	DD	050H
xdata	ENDS
;	COMDAT CONST
CONST	SEGMENT
?create_float4@@YA?ATcl_float4@@MMMM@Z$rtcName$0 DB 074H ; create_float4
	DB	065H
	DB	06dH
	DB	070H
	DB	00H
	ORG $+11
?create_float4@@YA?ATcl_float4@@MMMM@Z$rtcVarDesc DD 028H ; create_float4
	DD	010H
	DQ	FLAT:?create_float4@@YA?ATcl_float4@@MMMM@Z$rtcName$0
	ORG $+48
?create_float4@@YA?ATcl_float4@@MMMM@Z$rtcFrameData DD 01H ; create_float4
	DD	00H
	DQ	FLAT:?create_float4@@YA?ATcl_float4@@MMMM@Z$rtcVarDesc
; Function compile flags: /Odtp /RTCsu
CONST	ENDS
;	COMDAT ?create_float4@@YA?ATcl_float4@@MMMM@Z
_TEXT	SEGMENT
temp$ = 40
__$ArrayPad$ = 80
$T83706 = 128
x$ = 136
y$ = 144
z$ = 152
w$ = 160
?create_float4@@YA?ATcl_float4@@MMMM@Z PROC		; create_float4, COMDAT
; Line 39
$LN3:
	movss	DWORD PTR [rsp+32], xmm3
	movss	DWORD PTR [rsp+24], xmm2
	movss	DWORD PTR [rsp+16], xmm1
	mov	QWORD PTR [rsp+8], rcx
	push	rsi
	push	rdi
	sub	rsp, 104				; 00000068H
	mov	rdi, rsp
	mov	ecx, 26
	mov	eax, -858993460				; ccccccccH
	rep stosd
	mov	rcx, QWORD PTR [rsp+128]
	mov	rax, QWORD PTR __security_cookie
	xor	rax, rsp
	mov	QWORD PTR __$ArrayPad$[rsp], rax
; Line 41
	movss	xmm0, DWORD PTR x$[rsp]
	movss	DWORD PTR temp$[rsp], xmm0
; Line 42
	movss	xmm0, DWORD PTR y$[rsp]
	movss	DWORD PTR temp$[rsp+4], xmm0
; Line 43
	movss	xmm0, DWORD PTR z$[rsp]
	movss	DWORD PTR temp$[rsp+8], xmm0
; Line 44
	movss	xmm0, DWORD PTR w$[rsp]
	movss	DWORD PTR temp$[rsp+12], xmm0
; Line 45
	lea	rax, QWORD PTR temp$[rsp]
	mov	rdi, QWORD PTR $T83706[rsp]
	mov	rsi, rax
	mov	ecx, 16
	rep movsb
	mov	rax, QWORD PTR $T83706[rsp]
; Line 46
	mov	rdi, rax
	mov	rcx, rsp
	lea	rdx, OFFSET FLAT:?create_float4@@YA?ATcl_float4@@MMMM@Z$rtcFrameData
	call	_RTC_CheckStackVars
	mov	rax, rdi
	mov	rcx, QWORD PTR __$ArrayPad$[rsp]
	xor	rcx, rsp
	call	__security_check_cookie
	add	rsp, 104				; 00000068H
	pop	rdi
	pop	rsi
	ret	0
?create_float4@@YA?ATcl_float4@@MMMM@Z ENDP		; create_float4
_TEXT	ENDS
PUBLIC	?soft_dot@@YAMTcl_float4@@0@Z			; soft_dot
pdata	SEGMENT
$pdata$?soft_dot@@YAMTcl_float4@@0@Z DD imagerel $LN3
	DD	imagerel $LN3+134
	DD	imagerel $unwind$?soft_dot@@YAMTcl_float4@@0@Z
pdata	ENDS
xdata	SEGMENT
$unwind$?soft_dot@@YAMTcl_float4@@0@Z DD 022301H
	DD	0700b920fH
?soft_dot@@YAMTcl_float4@@0@Z$rtcName$0 DB 05fH		; soft_dot
	DB	05fH
	DB	024H
	DB	041H
	DB	072H
	DB	072H
	DB	061H
	DB	079H
	DB	050H
	DB	061H
	DB	064H
	DB	00H
	ORG $+4
?soft_dot@@YAMTcl_float4@@0@Z$rtcVarDesc DD 038H	; soft_dot
	DD	08H
	DQ	FLAT:?soft_dot@@YAMTcl_float4@@0@Z$rtcName$0
	ORG $+48
?soft_dot@@YAMTcl_float4@@0@Z$rtcFrameData DD 01H	; soft_dot
	DD	00H
	DQ	FLAT:?soft_dot@@YAMTcl_float4@@0@Z$rtcVarDesc
; Function compile flags: /Odtp /RTCsu
_TEXT	SEGMENT
vec_a$ = 96
vec_b$ = 104
?soft_dot@@YAMTcl_float4@@0@Z PROC			; soft_dot
; Line 29
$LN3:
	mov	QWORD PTR [rsp+16], rdx
	mov	QWORD PTR [rsp+8], rcx
	push	rdi
	sub	rsp, 80					; 00000050H
	mov	rdi, rsp
	mov	ecx, 20
	mov	eax, -858993460				; ccccccccH
	rep stosd
	mov	rcx, QWORD PTR [rsp+96]
; Line 30
	mov	rax, QWORD PTR vec_a$[rsp]
	mov	rcx, QWORD PTR vec_b$[rsp]
	movss	xmm0, DWORD PTR [rax]
	mulss	xmm0, DWORD PTR [rcx]
	mov	rax, QWORD PTR vec_a$[rsp]
	mov	rcx, QWORD PTR vec_b$[rsp]
	movss	xmm1, DWORD PTR [rax+4]
	mulss	xmm1, DWORD PTR [rcx+4]
	addss	xmm0, xmm1
	mov	rax, QWORD PTR vec_a$[rsp]
	mov	rcx, QWORD PTR vec_b$[rsp]
	movss	xmm1, DWORD PTR [rax+8]
	mulss	xmm1, DWORD PTR [rcx+8]
	addss	xmm0, xmm1
; Line 31
	movdqu	XMMWORD PTR [rsp+32], xmm0
	mov	rcx, rsp
	lea	rdx, OFFSET FLAT:?soft_dot@@YAMTcl_float4@@0@Z$rtcFrameData
	call	_RTC_CheckStackVars
	movdqu	xmm0, XMMWORD PTR [rsp+32]
	add	rsp, 80					; 00000050H
	pop	rdi
	ret	0
?soft_dot@@YAMTcl_float4@@0@Z ENDP			; soft_dot
_TEXT	ENDS
;	COMDAT pdata
; File c:\program files (x86)\microsoft visual studio 10.0\vc\include\math.h
pdata	SEGMENT
$pdata$?sqrt@@YAMM@Z DD imagerel $LN3
	DD	imagerel $LN3+44
	DD	imagerel $unwind$?sqrt@@YAMM@Z
pdata	ENDS
;	COMDAT xdata
xdata	SEGMENT
$unwind$?sqrt@@YAMM@Z DD 021a01H
	DD	07007520bH
; Function compile flags: /Odtp /RTCsu
xdata	ENDS
;	COMDAT ?sqrt@@YAMM@Z
_TEXT	SEGMENT
_X$ = 64
?sqrt@@YAMM@Z PROC					; sqrt, COMDAT
; Line 542
$LN3:
	movss	DWORD PTR [rsp+8], xmm0
	push	rdi
	sub	rsp, 48					; 00000030H
	mov	rdi, rsp
	mov	ecx, 12
	mov	eax, -858993460				; ccccccccH
	rep stosd
	movss	xmm0, DWORD PTR _X$[rsp]
	call	QWORD PTR __imp_sqrtf
	add	rsp, 48					; 00000030H
	pop	rdi
	ret	0
?sqrt@@YAMM@Z ENDP					; sqrt
_TEXT	ENDS
;	COMDAT pdata
pdata	SEGMENT
$pdata$?pow@@YAMMH@Z DD imagerel $LN3
	DD	imagerel $LN3+51
	DD	imagerel $unwind$?pow@@YAMMH@Z
pdata	ENDS
;	COMDAT xdata
xdata	SEGMENT
$unwind$?pow@@YAMMH@Z DD 021e01H
	DD	0700b520fH
; Function compile flags: /Odtp /RTCsu
xdata	ENDS
;	COMDAT ?pow@@YAMMH@Z
_TEXT	SEGMENT
_X$ = 64
_Y$ = 72
?pow@@YAMMH@Z PROC					; pow, COMDAT
; Line 536
$LN3:
	mov	DWORD PTR [rsp+16], edx
	movss	DWORD PTR [rsp+8], xmm0
	push	rdi
	sub	rsp, 48					; 00000030H
	mov	rdi, rsp
	mov	ecx, 12
	mov	eax, -858993460				; ccccccccH
	rep stosd
	mov	edx, DWORD PTR _Y$[rsp]
	movss	xmm0, DWORD PTR _X$[rsp]
	call	??$_Pow_int@M@@YAMMH@Z			; _Pow_int<float>
	add	rsp, 48					; 00000030H
	pop	rdi
	ret	0
?pow@@YAMMH@Z ENDP					; pow
_TEXT	ENDS
;	COMDAT pdata
pdata	SEGMENT
$pdata$?exp@@YAMM@Z DD imagerel $LN3
	DD	imagerel $LN3+44
	DD	imagerel $unwind$?exp@@YAMM@Z
pdata	ENDS
;	COMDAT xdata
xdata	SEGMENT
$unwind$?exp@@YAMM@Z DD 021a01H
	DD	07007520bH
; Function compile flags: /Odtp /RTCsu
xdata	ENDS
;	COMDAT ?exp@@YAMM@Z
_TEXT	SEGMENT
_X$ = 64
?exp@@YAMM@Z PROC					; exp, COMDAT
; Line 516
$LN3:
	movss	DWORD PTR [rsp+8], xmm0
	push	rdi
	sub	rsp, 48					; 00000030H
	mov	rdi, rsp
	mov	ecx, 12
	mov	eax, -858993460				; ccccccccH
	rep stosd
	movss	xmm0, DWORD PTR _X$[rsp]
	call	QWORD PTR __imp_expf
	add	rsp, 48					; 00000030H
	pop	rdi
	ret	0
?exp@@YAMM@Z ENDP					; exp
_TEXT	ENDS
;	COMDAT pdata
pdata	SEGMENT
$pdata$?pow@@YANNH@Z DD imagerel $LN3
	DD	imagerel $LN3+51
	DD	imagerel $unwind$?pow@@YANNH@Z
pdata	ENDS
;	COMDAT xdata
xdata	SEGMENT
$unwind$?pow@@YANNH@Z DD 021e01H
	DD	0700b520fH
; Function compile flags: /Odtp /RTCsu
xdata	ENDS
;	COMDAT ?pow@@YANNH@Z
_TEXT	SEGMENT
_X$ = 64
_Y$ = 72
?pow@@YANNH@Z PROC					; pow, COMDAT
; Line 498
$LN3:
	mov	DWORD PTR [rsp+16], edx
	movsdx	QWORD PTR [rsp+8], xmm0
	push	rdi
	sub	rsp, 48					; 00000030H
	mov	rdi, rsp
	mov	ecx, 12
	mov	eax, -858993460				; ccccccccH
	rep stosd
	mov	edx, DWORD PTR _Y$[rsp]
	movsdx	xmm0, QWORD PTR _X$[rsp]
	call	??$_Pow_int@N@@YANNH@Z			; _Pow_int<double>
	add	rsp, 48					; 00000030H
	pop	rdi
	ret	0
?pow@@YANNH@Z ENDP					; pow
PUBLIC	__mask@@NegFloat@
PUBLIC	$T84654
PUBLIC	$T84655
PUBLIC	$T84652
PUBLIC	$T84653
PUBLIC	?plane_intersect@@YAHPEAUPrimitive@@PEAURay@@PEAM@Z ; plane_intersect
pdata	SEGMENT
$pdata$?plane_intersect@@YAHPEAUPrimitive@@PEAURay@@PEAM@Z DD imagerel $LN6
	DD	imagerel $LN6+305
	DD	imagerel $unwind$?plane_intersect@@YAHPEAUPrimitive@@PEAURay@@PEAM@Z
xdata	SEGMENT
$unwind$?plane_intersect@@YAHPEAUPrimitive@@PEAURay@@PEAM@Z DD 032c01H
	DD	07011e215H
	DD	06010H
xdata	ENDS
;	COMDAT __mask@@NegFloat@
; File c:\users\mark\documents\visual studio projects\raytracing projects\opencl_raytracer\opencl_raytracer\raytracer\opencl raytracer\raytracer_no_opencl.c
CONST	SEGMENT
__mask@@NegFloat@ DB 00H, 00H, 00H, 080H, 00H, 00H, 00H, 080H, 00H, 00H, 00H
	DB	080H, 00H, 00H, 00H, 080H
; Function compile flags: /Odtp /RTCsu
CONST	ENDS
_TEXT	SEGMENT
d$ = 32
dist$7109 = 36
$T84652 = 48
$T84653 = 64
$T84654 = 80
$T84655 = 96
p$ = 144
ray$ = 152
cumu_dist$ = 160
?plane_intersect@@YAHPEAUPrimitive@@PEAURay@@PEAM@Z PROC ; plane_intersect
; Line 121
$LN6:
	mov	QWORD PTR [rsp+24], r8
	mov	QWORD PTR [rsp+16], rdx
	mov	QWORD PTR [rsp+8], rcx
	push	rsi
	push	rdi
	sub	rsp, 120				; 00000078H
	mov	rdi, rsp
	mov	ecx, 30
	mov	eax, -858993460				; ccccccccH
	rep stosd
	mov	rcx, QWORD PTR [rsp+144]
; Line 122
	lea	rax, QWORD PTR $T84653[rsp]
	mov	rcx, QWORD PTR ray$[rsp]
	mov	rdi, rax
	lea	rsi, QWORD PTR [rcx+16]
	mov	ecx, 16
	rep movsb
	lea	rax, QWORD PTR $T84652[rsp]
	mov	rcx, QWORD PTR p$[rsp]
	mov	rdi, rax
	lea	rsi, QWORD PTR [rcx+48]
	mov	ecx, 16
	rep movsb
	lea	rdx, QWORD PTR $T84653[rsp]
	lea	rcx, QWORD PTR $T84652[rsp]
	call	?soft_dot@@YAMTcl_float4@@0@Z		; soft_dot
	movss	DWORD PTR d$[rsp], xmm0
; Line 123
	movss	xmm0, DWORD PTR d$[rsp]
	ucomiss	xmm0, DWORD PTR __real@00000000
	jp	SHORT $LN5@plane_inte
	je	$LN2@plane_inte
$LN5@plane_inte:
; Line 125
	lea	rax, QWORD PTR $T84655[rsp]
	mov	rdi, rax
	mov	rsi, QWORD PTR ray$[rsp]
	mov	ecx, 16
	rep movsb
	lea	rax, QWORD PTR $T84654[rsp]
	mov	rcx, QWORD PTR p$[rsp]
	mov	rdi, rax
	lea	rsi, QWORD PTR [rcx+48]
	mov	ecx, 16
	rep movsb
	lea	rdx, QWORD PTR $T84655[rsp]
	lea	rcx, QWORD PTR $T84654[rsp]
	call	?soft_dot@@YAMTcl_float4@@0@Z		; soft_dot
	mov	rax, QWORD PTR p$[rsp]
	addss	xmm0, DWORD PTR [rax+80]
	xorps	xmm0, DWORD PTR __mask@@NegFloat@
	divss	xmm0, DWORD PTR d$[rsp]
	movss	DWORD PTR dist$7109[rsp], xmm0
; Line 126
	movss	xmm0, DWORD PTR dist$7109[rsp]
	comiss	xmm0, DWORD PTR __real@00000000
	jbe	SHORT $LN1@plane_inte
	mov	rax, QWORD PTR cumu_dist$[rsp]
	movss	xmm0, DWORD PTR [rax]
	comiss	xmm0, DWORD PTR dist$7109[rsp]
	jbe	SHORT $LN1@plane_inte
; Line 128
	mov	rax, QWORD PTR cumu_dist$[rsp]
	movss	xmm0, DWORD PTR dist$7109[rsp]
	movss	DWORD PTR [rax], xmm0
; Line 129
	mov	eax, 1
	jmp	SHORT $LN3@plane_inte
$LN1@plane_inte:
$LN2@plane_inte:
; Line 132
	xor	eax, eax
$LN3@plane_inte:
; Line 133
	add	rsp, 120				; 00000078H
	pop	rdi
	pop	rsi
	ret	0
?plane_intersect@@YAHPEAUPrimitive@@PEAURay@@PEAM@Z ENDP ; plane_intersect
_TEXT	ENDS
PUBLIC	$T84667
PUBLIC	__$ArrayPad$
;	COMDAT pdata
pdata	SEGMENT
$pdata$?vector_exp@@YA?ATcl_float4@@T1@@Z DD imagerel $LN3
	DD	imagerel $LN3+284
	DD	imagerel $unwind$?vector_exp@@YA?ATcl_float4@@T1@@Z
pdata	ENDS
;	COMDAT xdata
xdata	SEGMENT
$unwind$?vector_exp@@YA?ATcl_float4@@T1@@Z DD 043919H
	DD	0110113H
	DD	0600b700cH
	DD	imagerel __GSHandlerCheck
	DD	078H
; Function compile flags: /Odtp /RTCsu
xdata	ENDS
;	COMDAT ?vector_exp@@YA?ATcl_float4@@T1@@Z
_TEXT	SEGMENT
$T7080 = 48
$T84666 = 72
$T84667 = 88
tv65 = 104
tv69 = 108
tv73 = 112
__$ArrayPad$ = 120
$T84665 = 160
vec$ = 168
?vector_exp@@YA?ATcl_float4@@T1@@Z PROC			; vector_exp, COMDAT
; Line 69
$LN3:
	mov	QWORD PTR [rsp+16], rdx
	mov	QWORD PTR [rsp+8], rcx
	push	rsi
	push	rdi
	sub	rsp, 136				; 00000088H
	mov	rdi, rsp
	mov	ecx, 34					; 00000022H
	mov	eax, -858993460				; ccccccccH
	rep stosd
	mov	rcx, QWORD PTR [rsp+160]
	mov	rax, QWORD PTR __security_cookie
	xor	rax, rsp
	mov	QWORD PTR __$ArrayPad$[rsp], rax
; Line 70
	mov	rax, QWORD PTR vec$[rsp]
	movss	xmm0, DWORD PTR [rax+12]
	call	?exp@@YAMM@Z				; exp
	movss	DWORD PTR tv65[rsp], xmm0
	mov	rax, QWORD PTR vec$[rsp]
	movss	xmm0, DWORD PTR [rax+8]
	call	?exp@@YAMM@Z				; exp
	movss	DWORD PTR tv69[rsp], xmm0
	mov	rax, QWORD PTR vec$[rsp]
	movss	xmm0, DWORD PTR [rax+4]
	call	?exp@@YAMM@Z				; exp
	movss	DWORD PTR tv73[rsp], xmm0
	mov	rax, QWORD PTR vec$[rsp]
	movss	xmm0, DWORD PTR [rax]
	call	?exp@@YAMM@Z				; exp
	movss	xmm1, DWORD PTR tv65[rsp]
	movss	DWORD PTR [rsp+32], xmm1
	movss	xmm1, DWORD PTR tv69[rsp]
	movaps	xmm3, xmm1
	movss	xmm1, DWORD PTR tv73[rsp]
	movaps	xmm2, xmm1
	movaps	xmm1, xmm0
	lea	rcx, QWORD PTR $T84666[rsp]
	call	?create_float4@@YA?ATcl_float4@@MMMM@Z	; create_float4
	lea	rcx, QWORD PTR $T84667[rsp]
	mov	rdi, rcx
	mov	rsi, rax
	mov	ecx, 16
	rep movsb
	lea	rax, QWORD PTR $T7080[rsp]
	lea	rcx, QWORD PTR $T84667[rsp]
	mov	rdi, rax
	mov	rsi, rcx
	mov	ecx, 16
	rep movsb
	lea	rax, QWORD PTR $T7080[rsp]
	mov	rdi, QWORD PTR $T84665[rsp]
	mov	rsi, rax
	mov	ecx, 16
	rep movsb
	mov	rax, QWORD PTR $T84665[rsp]
; Line 71
	mov	rcx, QWORD PTR __$ArrayPad$[rsp]
	xor	rcx, rsp
	call	__security_check_cookie
	add	rsp, 136				; 00000088H
	pop	rdi
	pop	rsi
	ret	0
?vector_exp@@YA?ATcl_float4@@T1@@Z ENDP			; vector_exp
_TEXT	ENDS
PUBLIC	$T84678
PUBLIC	__$ArrayPad$
;	COMDAT pdata
pdata	SEGMENT
$pdata$?vector_scalar_mul@@YA?ATcl_float4@@T1@M@Z DD imagerel $LN3
	DD	imagerel $LN3+279
	DD	imagerel $unwind$?vector_scalar_mul@@YA?ATcl_float4@@T1@M@Z
pdata	ENDS
;	COMDAT xdata
xdata	SEGMENT
$unwind$?vector_scalar_mul@@YA?ATcl_float4@@T1@M@Z DD 043f19H
	DD	0110119H
	DD	060117012H
	DD	imagerel __GSHandlerCheck
	DD	070H
; Function compile flags: /Odtp /RTCsu
xdata	ENDS
;	COMDAT ?vector_scalar_mul@@YA?ATcl_float4@@T1@M@Z
_TEXT	SEGMENT
$T7076 = 48
$T84677 = 72
$T84678 = 88
tv74 = 104
__$ArrayPad$ = 112
$T84676 = 160
vec$ = 168
s$ = 176
?vector_scalar_mul@@YA?ATcl_float4@@T1@M@Z PROC		; vector_scalar_mul, COMDAT
; Line 64
$LN3:
	movss	DWORD PTR [rsp+24], xmm2
	mov	QWORD PTR [rsp+16], rdx
	mov	QWORD PTR [rsp+8], rcx
	push	rsi
	push	rdi
	sub	rsp, 136				; 00000088H
	mov	rdi, rsp
	mov	ecx, 34					; 00000022H
	mov	eax, -858993460				; ccccccccH
	rep stosd
	mov	rcx, QWORD PTR [rsp+160]
	mov	rax, QWORD PTR __security_cookie
	xor	rax, rsp
	mov	QWORD PTR __$ArrayPad$[rsp], rax
; Line 65
	mov	rax, QWORD PTR vec$[rsp]
	movss	xmm0, DWORD PTR [rax+12]
	mulss	xmm0, DWORD PTR s$[rsp]
	mov	rax, QWORD PTR vec$[rsp]
	movss	xmm1, DWORD PTR [rax+8]
	mulss	xmm1, DWORD PTR s$[rsp]
	mov	rax, QWORD PTR vec$[rsp]
	movss	xmm2, DWORD PTR [rax+4]
	mulss	xmm2, DWORD PTR s$[rsp]
	mov	rax, QWORD PTR vec$[rsp]
	movss	xmm3, DWORD PTR [rax]
	mulss	xmm3, DWORD PTR s$[rsp]
	movss	DWORD PTR tv74[rsp], xmm3
	movss	DWORD PTR [rsp+32], xmm0
	movaps	xmm3, xmm1
	movss	xmm0, DWORD PTR tv74[rsp]
	movaps	xmm1, xmm0
	lea	rcx, QWORD PTR $T84677[rsp]
	call	?create_float4@@YA?ATcl_float4@@MMMM@Z	; create_float4
	lea	rcx, QWORD PTR $T84678[rsp]
	mov	rdi, rcx
	mov	rsi, rax
	mov	ecx, 16
	rep movsb
	lea	rax, QWORD PTR $T7076[rsp]
	lea	rcx, QWORD PTR $T84678[rsp]
	mov	rdi, rax
	mov	rsi, rcx
	mov	ecx, 16
	rep movsb
	lea	rax, QWORD PTR $T7076[rsp]
	mov	rdi, QWORD PTR $T84676[rsp]
	mov	rsi, rax
	mov	ecx, 16
	rep movsb
	mov	rax, QWORD PTR $T84676[rsp]
; Line 66
	mov	rcx, QWORD PTR __$ArrayPad$[rsp]
	xor	rcx, rsp
	call	__security_check_cookie
	add	rsp, 136				; 00000088H
	pop	rdi
	pop	rsi
	ret	0
?vector_scalar_mul@@YA?ATcl_float4@@T1@M@Z ENDP		; vector_scalar_mul
_TEXT	ENDS
PUBLIC	$T84689
PUBLIC	__$ArrayPad$
;	COMDAT pdata
pdata	SEGMENT
$pdata$?vector_mul@@YA?ATcl_float4@@T1@0@Z DD imagerel $LN3
	DD	imagerel $LN3+293
	DD	imagerel $unwind$?vector_mul@@YA?ATcl_float4@@T1@0@Z
pdata	ENDS
;	COMDAT xdata
xdata	SEGMENT
$unwind$?vector_mul@@YA?ATcl_float4@@T1@0@Z DD 043e19H
	DD	0110118H
	DD	060107011H
	DD	imagerel __GSHandlerCheck
	DD	070H
; Function compile flags: /Odtp /RTCsu
xdata	ENDS
;	COMDAT ?vector_mul@@YA?ATcl_float4@@T1@0@Z
_TEXT	SEGMENT
$T7071 = 48
$T84688 = 72
$T84689 = 88
tv77 = 104
__$ArrayPad$ = 112
$T84687 = 160
vec_a$ = 168
vec_b$ = 176
?vector_mul@@YA?ATcl_float4@@T1@0@Z PROC		; vector_mul, COMDAT
; Line 59
$LN3:
	mov	QWORD PTR [rsp+24], r8
	mov	QWORD PTR [rsp+16], rdx
	mov	QWORD PTR [rsp+8], rcx
	push	rsi
	push	rdi
	sub	rsp, 136				; 00000088H
	mov	rdi, rsp
	mov	ecx, 34					; 00000022H
	mov	eax, -858993460				; ccccccccH
	rep stosd
	mov	rcx, QWORD PTR [rsp+160]
	mov	rax, QWORD PTR __security_cookie
	xor	rax, rsp
	mov	QWORD PTR __$ArrayPad$[rsp], rax
; Line 60
	mov	rax, QWORD PTR vec_a$[rsp]
	mov	rcx, QWORD PTR vec_b$[rsp]
	movss	xmm0, DWORD PTR [rax+12]
	mulss	xmm0, DWORD PTR [rcx+12]
	mov	rax, QWORD PTR vec_a$[rsp]
	mov	rcx, QWORD PTR vec_b$[rsp]
	movss	xmm1, DWORD PTR [rax+8]
	mulss	xmm1, DWORD PTR [rcx+8]
	mov	rax, QWORD PTR vec_a$[rsp]
	mov	rcx, QWORD PTR vec_b$[rsp]
	movss	xmm2, DWORD PTR [rax+4]
	mulss	xmm2, DWORD PTR [rcx+4]
	mov	rax, QWORD PTR vec_a$[rsp]
	mov	rcx, QWORD PTR vec_b$[rsp]
	movss	xmm3, DWORD PTR [rax]
	mulss	xmm3, DWORD PTR [rcx]
	movss	DWORD PTR tv77[rsp], xmm3
	movss	DWORD PTR [rsp+32], xmm0
	movaps	xmm3, xmm1
	movss	xmm0, DWORD PTR tv77[rsp]
	movaps	xmm1, xmm0
	lea	rcx, QWORD PTR $T84688[rsp]
	call	?create_float4@@YA?ATcl_float4@@MMMM@Z	; create_float4
	lea	rcx, QWORD PTR $T84689[rsp]
	mov	rdi, rcx
	mov	rsi, rax
	mov	ecx, 16
	rep movsb
	lea	rax, QWORD PTR $T7071[rsp]
	lea	rcx, QWORD PTR $T84689[rsp]
	mov	rdi, rax
	mov	rsi, rcx
	mov	ecx, 16
	rep movsb
	lea	rax, QWORD PTR $T7071[rsp]
	mov	rdi, QWORD PTR $T84687[rsp]
	mov	rsi, rax
	mov	ecx, 16
	rep movsb
	mov	rax, QWORD PTR $T84687[rsp]
; Line 61
	mov	rcx, QWORD PTR __$ArrayPad$[rsp]
	xor	rcx, rsp
	call	__security_check_cookie
	add	rsp, 136				; 00000088H
	pop	rdi
	pop	rsi
	ret	0
?vector_mul@@YA?ATcl_float4@@T1@0@Z ENDP		; vector_mul
_TEXT	ENDS
PUBLIC	$T84700
PUBLIC	__$ArrayPad$
;	COMDAT pdata
pdata	SEGMENT
$pdata$?vector_add@@YA?ATcl_float4@@T1@0@Z DD imagerel $LN3
	DD	imagerel $LN3+293
	DD	imagerel $unwind$?vector_add@@YA?ATcl_float4@@T1@0@Z
pdata	ENDS
;	COMDAT xdata
xdata	SEGMENT
$unwind$?vector_add@@YA?ATcl_float4@@T1@0@Z DD 043e19H
	DD	0110118H
	DD	060107011H
	DD	imagerel __GSHandlerCheck
	DD	070H
; Function compile flags: /Odtp /RTCsu
xdata	ENDS
;	COMDAT ?vector_add@@YA?ATcl_float4@@T1@0@Z
_TEXT	SEGMENT
$T7066 = 48
$T84699 = 72
$T84700 = 88
tv77 = 104
__$ArrayPad$ = 112
$T84698 = 160
vec_a$ = 168
vec_b$ = 176
?vector_add@@YA?ATcl_float4@@T1@0@Z PROC		; vector_add, COMDAT
; Line 54
$LN3:
	mov	QWORD PTR [rsp+24], r8
	mov	QWORD PTR [rsp+16], rdx
	mov	QWORD PTR [rsp+8], rcx
	push	rsi
	push	rdi
	sub	rsp, 136				; 00000088H
	mov	rdi, rsp
	mov	ecx, 34					; 00000022H
	mov	eax, -858993460				; ccccccccH
	rep stosd
	mov	rcx, QWORD PTR [rsp+160]
	mov	rax, QWORD PTR __security_cookie
	xor	rax, rsp
	mov	QWORD PTR __$ArrayPad$[rsp], rax
; Line 55
	mov	rax, QWORD PTR vec_a$[rsp]
	mov	rcx, QWORD PTR vec_b$[rsp]
	movss	xmm0, DWORD PTR [rax+12]
	addss	xmm0, DWORD PTR [rcx+12]
	mov	rax, QWORD PTR vec_a$[rsp]
	mov	rcx, QWORD PTR vec_b$[rsp]
	movss	xmm1, DWORD PTR [rax+8]
	addss	xmm1, DWORD PTR [rcx+8]
	mov	rax, QWORD PTR vec_a$[rsp]
	mov	rcx, QWORD PTR vec_b$[rsp]
	movss	xmm2, DWORD PTR [rax+4]
	addss	xmm2, DWORD PTR [rcx+4]
	mov	rax, QWORD PTR vec_a$[rsp]
	mov	rcx, QWORD PTR vec_b$[rsp]
	movss	xmm3, DWORD PTR [rax]
	addss	xmm3, DWORD PTR [rcx]
	movss	DWORD PTR tv77[rsp], xmm3
	movss	DWORD PTR [rsp+32], xmm0
	movaps	xmm3, xmm1
	movss	xmm0, DWORD PTR tv77[rsp]
	movaps	xmm1, xmm0
	lea	rcx, QWORD PTR $T84699[rsp]
	call	?create_float4@@YA?ATcl_float4@@MMMM@Z	; create_float4
	lea	rcx, QWORD PTR $T84700[rsp]
	mov	rdi, rcx
	mov	rsi, rax
	mov	ecx, 16
	rep movsb
	lea	rax, QWORD PTR $T7066[rsp]
	lea	rcx, QWORD PTR $T84700[rsp]
	mov	rdi, rax
	mov	rsi, rcx
	mov	ecx, 16
	rep movsb
	lea	rax, QWORD PTR $T7066[rsp]
	mov	rdi, QWORD PTR $T84698[rsp]
	mov	rsi, rax
	mov	ecx, 16
	rep movsb
	mov	rax, QWORD PTR $T84698[rsp]
; Line 56
	mov	rcx, QWORD PTR __$ArrayPad$[rsp]
	xor	rcx, rsp
	call	__security_check_cookie
	add	rsp, 136				; 00000088H
	pop	rdi
	pop	rsi
	ret	0
?vector_add@@YA?ATcl_float4@@T1@0@Z ENDP		; vector_add
_TEXT	ENDS
PUBLIC	$T84711
PUBLIC	__$ArrayPad$
;	COMDAT pdata
pdata	SEGMENT
$pdata$?vector_sub@@YA?ATcl_float4@@T1@0@Z DD imagerel $LN3
	DD	imagerel $LN3+293
	DD	imagerel $unwind$?vector_sub@@YA?ATcl_float4@@T1@0@Z
pdata	ENDS
;	COMDAT xdata
xdata	SEGMENT
$unwind$?vector_sub@@YA?ATcl_float4@@T1@0@Z DD 043e19H
	DD	0110118H
	DD	060107011H
	DD	imagerel __GSHandlerCheck
	DD	070H
; Function compile flags: /Odtp /RTCsu
xdata	ENDS
;	COMDAT ?vector_sub@@YA?ATcl_float4@@T1@0@Z
_TEXT	SEGMENT
$T7061 = 48
$T84710 = 72
$T84711 = 88
tv77 = 104
__$ArrayPad$ = 112
$T84709 = 160
vec_a$ = 168
vec_b$ = 176
?vector_sub@@YA?ATcl_float4@@T1@0@Z PROC		; vector_sub, COMDAT
; Line 49
$LN3:
	mov	QWORD PTR [rsp+24], r8
	mov	QWORD PTR [rsp+16], rdx
	mov	QWORD PTR [rsp+8], rcx
	push	rsi
	push	rdi
	sub	rsp, 136				; 00000088H
	mov	rdi, rsp
	mov	ecx, 34					; 00000022H
	mov	eax, -858993460				; ccccccccH
	rep stosd
	mov	rcx, QWORD PTR [rsp+160]
	mov	rax, QWORD PTR __security_cookie
	xor	rax, rsp
	mov	QWORD PTR __$ArrayPad$[rsp], rax
; Line 50
	mov	rax, QWORD PTR vec_a$[rsp]
	mov	rcx, QWORD PTR vec_b$[rsp]
	movss	xmm0, DWORD PTR [rax+12]
	subss	xmm0, DWORD PTR [rcx+12]
	mov	rax, QWORD PTR vec_a$[rsp]
	mov	rcx, QWORD PTR vec_b$[rsp]
	movss	xmm1, DWORD PTR [rax+8]
	subss	xmm1, DWORD PTR [rcx+8]
	mov	rax, QWORD PTR vec_a$[rsp]
	mov	rcx, QWORD PTR vec_b$[rsp]
	movss	xmm2, DWORD PTR [rax+4]
	subss	xmm2, DWORD PTR [rcx+4]
	mov	rax, QWORD PTR vec_a$[rsp]
	mov	rcx, QWORD PTR vec_b$[rsp]
	movss	xmm3, DWORD PTR [rax]
	subss	xmm3, DWORD PTR [rcx]
	movss	DWORD PTR tv77[rsp], xmm3
	movss	DWORD PTR [rsp+32], xmm0
	movaps	xmm3, xmm1
	movss	xmm0, DWORD PTR tv77[rsp]
	movaps	xmm1, xmm0
	lea	rcx, QWORD PTR $T84710[rsp]
	call	?create_float4@@YA?ATcl_float4@@MMMM@Z	; create_float4
	lea	rcx, QWORD PTR $T84711[rsp]
	mov	rdi, rcx
	mov	rsi, rax
	mov	ecx, 16
	rep movsb
	lea	rax, QWORD PTR $T7061[rsp]
	lea	rcx, QWORD PTR $T84711[rsp]
	mov	rdi, rax
	mov	rsi, rcx
	mov	ecx, 16
	rep movsb
	lea	rax, QWORD PTR $T7061[rsp]
	mov	rdi, QWORD PTR $T84709[rsp]
	mov	rsi, rax
	mov	ecx, 16
	rep movsb
	mov	rax, QWORD PTR $T84709[rsp]
; Line 51
	mov	rcx, QWORD PTR __$ArrayPad$[rsp]
	xor	rcx, rsp
	call	__security_check_cookie
	add	rsp, 136				; 00000088H
	pop	rdi
	pop	rsi
	ret	0
?vector_sub@@YA?ATcl_float4@@T1@0@Z ENDP		; vector_sub
_TEXT	ENDS
PUBLIC	?soft_length@@YAMTcl_float4@@@Z			; soft_length
pdata	SEGMENT
$pdata$?soft_length@@YAMTcl_float4@@@Z DD imagerel $LN3
	DD	imagerel $LN3+134
	DD	imagerel $unwind$?soft_length@@YAMTcl_float4@@@Z
pdata	ENDS
xdata	SEGMENT
$unwind$?soft_length@@YAMTcl_float4@@@Z DD 021e01H
	DD	07006920aH
?soft_length@@YAMTcl_float4@@@Z$rtcName$0 DB 05fH	; soft_length
	DB	05fH
	DB	024H
	DB	041H
	DB	072H
	DB	072H
	DB	061H
	DB	079H
	DB	050H
	DB	061H
	DB	064H
	DB	00H
	ORG $+4
?soft_length@@YAMTcl_float4@@@Z$rtcVarDesc DD 038H	; soft_length
	DD	08H
	DQ	FLAT:?soft_length@@YAMTcl_float4@@@Z$rtcName$0
	ORG $+48
?soft_length@@YAMTcl_float4@@@Z$rtcFrameData DD 01H	; soft_length
	DD	00H
	DQ	FLAT:?soft_length@@YAMTcl_float4@@@Z$rtcVarDesc
; Function compile flags: /Odtp /RTCsu
_TEXT	SEGMENT
vec$ = 96
?soft_length@@YAMTcl_float4@@@Z PROC			; soft_length
; Line 34
$LN3:
	mov	QWORD PTR [rsp+8], rcx
	push	rdi
	sub	rsp, 80					; 00000050H
	mov	rdi, rsp
	mov	ecx, 20
	mov	eax, -858993460				; ccccccccH
	rep stosd
	mov	rcx, QWORD PTR [rsp+96]
; Line 35
	mov	rax, QWORD PTR vec$[rsp]
	mov	rcx, QWORD PTR vec$[rsp]
	movss	xmm0, DWORD PTR [rax]
	mulss	xmm0, DWORD PTR [rcx]
	mov	rax, QWORD PTR vec$[rsp]
	mov	rcx, QWORD PTR vec$[rsp]
	movss	xmm1, DWORD PTR [rax+4]
	mulss	xmm1, DWORD PTR [rcx+4]
	addss	xmm0, xmm1
	mov	rax, QWORD PTR vec$[rsp]
	mov	rcx, QWORD PTR vec$[rsp]
	movss	xmm1, DWORD PTR [rax+8]
	mulss	xmm1, DWORD PTR [rcx+8]
	addss	xmm0, xmm1
	call	?sqrt@@YAMM@Z				; sqrt
; Line 36
	movdqu	XMMWORD PTR [rsp+32], xmm0
	mov	rcx, rsp
	lea	rdx, OFFSET FLAT:?soft_length@@YAMTcl_float4@@@Z$rtcFrameData
	call	_RTC_CheckStackVars
	movdqu	xmm0, XMMWORD PTR [rsp+32]
	add	rsp, 80					; 00000050H
	pop	rdi
	ret	0
?soft_length@@YAMTcl_float4@@@Z ENDP			; soft_length
_TEXT	ENDS
PUBLIC	__$ArrayPad$
PUBLIC	?soft_normalize@@YA?ATcl_float4@@T1@@Z		; soft_normalize
pdata	SEGMENT
$pdata$?soft_normalize@@YA?ATcl_float4@@T1@@Z DD imagerel $LN3
	DD	imagerel $LN3+310
	DD	imagerel $unwind$?soft_normalize@@YA?ATcl_float4@@T1@@Z
pdata	ENDS
xdata	SEGMENT
$unwind$?soft_normalize@@YA?ATcl_float4@@T1@@Z DD 033619H
	DD	0700ce210H
	DD	0600bH
	DD	imagerel __GSHandlerCheck
	DD	060H
?soft_normalize@@YA?ATcl_float4@@T1@@Z$rtcName$0 DB 074H ; soft_normalize
	DB	065H
	DB	06dH
	DB	070H
	DB	00H
	ORG $+11
?soft_normalize@@YA?ATcl_float4@@T1@@Z$rtcVarDesc DD 038H ; soft_normalize
	DD	010H
	DQ	FLAT:?soft_normalize@@YA?ATcl_float4@@T1@@Z$rtcName$0
	ORG $+48
?soft_normalize@@YA?ATcl_float4@@T1@@Z$rtcFrameData DD 01H ; soft_normalize
	DD	00H
	DQ	FLAT:?soft_normalize@@YA?ATcl_float4@@T1@@Z$rtcVarDesc
; Function compile flags: /Odtp /RTCsu
_TEXT	SEGMENT
l$ = 32
temp$ = 56
__$ArrayPad$ = 96
$T84728 = 144
vec$ = 152
?soft_normalize@@YA?ATcl_float4@@T1@@Z PROC		; soft_normalize
; Line 19
$LN3:
	mov	QWORD PTR [rsp+16], rdx
	mov	QWORD PTR [rsp+8], rcx
	push	rsi
	push	rdi
	sub	rsp, 120				; 00000078H
	mov	rdi, rsp
	mov	ecx, 30
	mov	eax, -858993460				; ccccccccH
	rep stosd
	mov	rcx, QWORD PTR [rsp+144]
	mov	rax, QWORD PTR __security_cookie
	xor	rax, rsp
	mov	QWORD PTR __$ArrayPad$[rsp], rax
; Line 20
	mov	rax, QWORD PTR vec$[rsp]
	mov	rcx, QWORD PTR vec$[rsp]
	movss	xmm0, DWORD PTR [rax]
	mulss	xmm0, DWORD PTR [rcx]
	mov	rax, QWORD PTR vec$[rsp]
	mov	rcx, QWORD PTR vec$[rsp]
	movss	xmm1, DWORD PTR [rax+4]
	mulss	xmm1, DWORD PTR [rcx+4]
	addss	xmm0, xmm1
	mov	rax, QWORD PTR vec$[rsp]
	mov	rcx, QWORD PTR vec$[rsp]
	movss	xmm1, DWORD PTR [rax+8]
	mulss	xmm1, DWORD PTR [rcx+8]
	addss	xmm0, xmm1
	call	?sqrt@@YAMM@Z				; sqrt
	movss	xmm1, DWORD PTR __real@3f800000
	divss	xmm1, xmm0
	movaps	xmm0, xmm1
	movss	DWORD PTR l$[rsp], xmm0
; Line 22
	mov	rax, QWORD PTR vec$[rsp]
	movss	xmm0, DWORD PTR [rax]
	mulss	xmm0, DWORD PTR l$[rsp]
	movss	DWORD PTR temp$[rsp], xmm0
; Line 23
	mov	rax, QWORD PTR vec$[rsp]
	movss	xmm0, DWORD PTR [rax+4]
	mulss	xmm0, DWORD PTR l$[rsp]
	movss	DWORD PTR temp$[rsp+4], xmm0
; Line 24
	mov	rax, QWORD PTR vec$[rsp]
	movss	xmm0, DWORD PTR [rax+8]
	mulss	xmm0, DWORD PTR l$[rsp]
	movss	DWORD PTR temp$[rsp+8], xmm0
; Line 25
	lea	rax, QWORD PTR temp$[rsp]
	mov	rdi, QWORD PTR $T84728[rsp]
	mov	rsi, rax
	mov	ecx, 16
	rep movsb
	mov	rax, QWORD PTR $T84728[rsp]
; Line 26
	mov	rdi, rax
	mov	rcx, rsp
	lea	rdx, OFFSET FLAT:?soft_normalize@@YA?ATcl_float4@@T1@@Z$rtcFrameData
	call	_RTC_CheckStackVars
	mov	rax, rdi
	mov	rcx, QWORD PTR __$ArrayPad$[rsp]
	xor	rcx, rsp
	call	__security_check_cookie
	add	rsp, 120				; 00000078H
	pop	rdi
	pop	rsi
	ret	0
?soft_normalize@@YA?ATcl_float4@@T1@@Z ENDP		; soft_normalize
PUBLIC	$T84979
PUBLIC	$T84980
PUBLIC	$T84978
PUBLIC	$T84981
PUBLIC	$T84976
PUBLIC	$T84977
PUBLIC	__$ArrayPad$
PUBLIC	?get_normal@@YA?ATcl_float4@@PEAUPrimitive@@T1@@Z ; get_normal
pdata	SEGMENT
$pdata$?get_normal@@YA?ATcl_float4@@PEAUPrimitive@@T1@@Z DD imagerel $LN7
	DD	imagerel $LN7+549
	DD	imagerel $unwind$?get_normal@@YA?ATcl_float4@@PEAUPrimitive@@T1@@Z
pdata	ENDS
xdata	SEGMENT
$unwind$?get_normal@@YA?ATcl_float4@@PEAUPrimitive@@T1@@Z DD 044119H
	DD	0230118H
	DD	060107011H
	DD	imagerel __GSHandlerCheck
	DD	0108H
; Function compile flags: /Odtp /RTCsu
xdata	ENDS
_TEXT	SEGMENT
$T7150 = 48
$T7151 = 64
$T7152 = 80
$T84973 = 104
$T84974 = 120
$T84975 = 136
$T84976 = 160
$T84977 = 176
$T84978 = 192
$T84979 = 208
$T84980 = 224
$T84981 = 240
tv65 = 256
__$ArrayPad$ = 264
$T84972 = 304
p$ = 312
point$ = 320
?get_normal@@YA?ATcl_float4@@PEAUPrimitive@@T1@@Z PROC	; get_normal
; Line 182
$LN7:
	mov	QWORD PTR [rsp+24], r8
	mov	QWORD PTR [rsp+16], rdx
	mov	QWORD PTR [rsp+8], rcx
	push	rsi
	push	rdi
	sub	rsp, 280				; 00000118H
	mov	rdi, rsp
	mov	ecx, 70					; 00000046H
	mov	eax, -858993460				; ccccccccH
	rep stosd
	mov	rcx, QWORD PTR [rsp+304]
	mov	rax, QWORD PTR __security_cookie
	xor	rax, rsp
	mov	QWORD PTR __$ArrayPad$[rsp], rax
; Line 183
	mov	rax, QWORD PTR p$[rsp]
	mov	eax, DWORD PTR [rax+40]
	mov	DWORD PTR tv65[rsp], eax
	cmp	DWORD PTR tv65[rsp], 0
	je	SHORT $LN2@get_normal
	cmp	DWORD PTR tv65[rsp], 1
	je	SHORT $LN1@get_normal
	jmp	$LN3@get_normal
$LN2@get_normal:
; Line 186
	mov	rax, QWORD PTR p$[rsp]
	mov	rdi, QWORD PTR $T84972[rsp]
	lea	rsi, QWORD PTR [rax+48]
	mov	ecx, 16
	rep movsb
	mov	rax, QWORD PTR $T84972[rsp]
	jmp	$LN5@get_normal
$LN1@get_normal:
; Line 188
	lea	rax, QWORD PTR $T84977[rsp]
	mov	rcx, QWORD PTR p$[rsp]
	mov	rdi, rax
	lea	rsi, QWORD PTR [rcx+64]
	mov	ecx, 16
	rep movsb
	lea	rax, QWORD PTR $T84976[rsp]
	mov	rdi, rax
	mov	rsi, QWORD PTR point$[rsp]
	mov	ecx, 16
	rep movsb
	lea	r8, QWORD PTR $T84977[rsp]
	lea	rdx, QWORD PTR $T84976[rsp]
	lea	rcx, QWORD PTR $T84973[rsp]
	call	?vector_sub@@YA?ATcl_float4@@T1@0@Z	; vector_sub
	lea	rcx, QWORD PTR $T84981[rsp]
	mov	rdi, rcx
	mov	rsi, rax
	mov	ecx, 16
	rep movsb
	lea	rax, QWORD PTR $T7150[rsp]
	lea	rcx, QWORD PTR $T84981[rsp]
	mov	rdi, rax
	mov	rsi, rcx
	mov	ecx, 16
	rep movsb
	lea	rax, QWORD PTR $T84978[rsp]
	lea	rcx, QWORD PTR $T7150[rsp]
	mov	rdi, rax
	mov	rsi, rcx
	mov	ecx, 16
	rep movsb
	mov	rax, QWORD PTR p$[rsp]
	movss	xmm2, DWORD PTR [rax+92]
	lea	rdx, QWORD PTR $T84978[rsp]
	lea	rcx, QWORD PTR $T84974[rsp]
	call	?vector_scalar_mul@@YA?ATcl_float4@@T1@M@Z ; vector_scalar_mul
	lea	rcx, QWORD PTR $T84980[rsp]
	mov	rdi, rcx
	mov	rsi, rax
	mov	ecx, 16
	rep movsb
	lea	rax, QWORD PTR $T7151[rsp]
	lea	rcx, QWORD PTR $T84980[rsp]
	mov	rdi, rax
	mov	rsi, rcx
	mov	ecx, 16
	rep movsb
	lea	rax, QWORD PTR $T7151[rsp]
	mov	rdi, QWORD PTR $T84972[rsp]
	mov	rsi, rax
	mov	ecx, 16
	rep movsb
	mov	rax, QWORD PTR $T84972[rsp]
	jmp	SHORT $LN5@get_normal
$LN3@get_normal:
; Line 190
	xorps	xmm0, xmm0
	movss	DWORD PTR [rsp+32], xmm0
	xorps	xmm3, xmm3
	xorps	xmm2, xmm2
	xorps	xmm1, xmm1
	lea	rcx, QWORD PTR $T84975[rsp]
	call	?create_float4@@YA?ATcl_float4@@MMMM@Z	; create_float4
	lea	rcx, QWORD PTR $T84979[rsp]
	mov	rdi, rcx
	mov	rsi, rax
	mov	ecx, 16
	rep movsb
	lea	rax, QWORD PTR $T7152[rsp]
	lea	rcx, QWORD PTR $T84979[rsp]
	mov	rdi, rax
	mov	rsi, rcx
	mov	ecx, 16
	rep movsb
	lea	rax, QWORD PTR $T7152[rsp]
	mov	rdi, QWORD PTR $T84972[rsp]
	mov	rsi, rax
	mov	ecx, 16
	rep movsb
	mov	rax, QWORD PTR $T84972[rsp]
$LN5@get_normal:
; Line 191
	mov	rcx, QWORD PTR __$ArrayPad$[rsp]
	xor	rcx, rsp
	call	__security_check_cookie
	add	rsp, 280				; 00000118H
	pop	rdi
	pop	rsi
	ret	0
?get_normal@@YA?ATcl_float4@@PEAUPrimitive@@T1@@Z ENDP	; get_normal
_TEXT	ENDS
PUBLIC	$T84992
PUBLIC	$T84993
PUBLIC	$T84990
PUBLIC	$T84991
PUBLIC	$T84994
PUBLIC	$T84988
PUBLIC	$T84989
PUBLIC	__$ArrayPad$
PUBLIC	?sphere_intersect@@YAHPEAUPrimitive@@PEAURay@@PEAM@Z ; sphere_intersect
pdata	SEGMENT
$pdata$?sphere_intersect@@YAHPEAUPrimitive@@PEAURay@@PEAM@Z DD imagerel $LN9
	DD	imagerel $LN9+664
	DD	imagerel $unwind$?sphere_intersect@@YAHPEAUPrimitive@@PEAURay@@PEAM@Z
pdata	ENDS
xdata	SEGMENT
$unwind$?sphere_intersect@@YAHPEAUPrimitive@@PEAURay@@PEAM@Z DD 044119H
	DD	0230118H
	DD	060107011H
	DD	imagerel __GSHandlerCheck
	DD	0100H
?sphere_intersect@@YAHPEAUPrimitive@@PEAURay@@PEAM@Z$rtcName$0 DB 076H ; sphere_intersect
	DB	00H
	ORG $+14
?sphere_intersect@@YAHPEAUPrimitive@@PEAURay@@PEAM@Z$rtcVarDesc DD 028H ; sphere_intersect
	DD	010H
	DQ	FLAT:?sphere_intersect@@YAHPEAUPrimitive@@PEAURay@@PEAM@Z$rtcName$0
	ORG $+48
?sphere_intersect@@YAHPEAUPrimitive@@PEAURay@@PEAM@Z$rtcFrameData DD 01H ; sphere_intersect
	DD	00H
	DQ	FLAT:?sphere_intersect@@YAHPEAUPrimitive@@PEAURay@@PEAM@Z$rtcVarDesc
; Function compile flags: /Odtp /RTCsu
_TEXT	SEGMENT
v$ = 40
$T7117 = 72
b$ = 88
det$ = 92
retval$ = 96
i1$7122 = 100
i2$7123 = 104
$T84987 = 120
$T84988 = 144
$T84989 = 160
$T84990 = 176
$T84991 = 192
$T84992 = 208
$T84993 = 224
$T84994 = 240
__$ArrayPad$ = 256
p$ = 304
ray$ = 312
cumu_dist$ = 320
?sphere_intersect@@YAHPEAUPrimitive@@PEAURay@@PEAM@Z PROC ; sphere_intersect
; Line 136
$LN9:
	mov	QWORD PTR [rsp+24], r8
	mov	QWORD PTR [rsp+16], rdx
	mov	QWORD PTR [rsp+8], rcx
	push	rsi
	push	rdi
	sub	rsp, 280				; 00000118H
	mov	rdi, rsp
	mov	ecx, 70					; 00000046H
	mov	eax, -858993460				; ccccccccH
	rep stosd
	mov	rcx, QWORD PTR [rsp+304]
	mov	rax, QWORD PTR __security_cookie
	xor	rax, rsp
	mov	QWORD PTR __$ArrayPad$[rsp], rax
; Line 137
	lea	rax, QWORD PTR $T84989[rsp]
	mov	rcx, QWORD PTR p$[rsp]
	mov	rdi, rax
	lea	rsi, QWORD PTR [rcx+64]
	mov	ecx, 16
	rep movsb
	lea	rax, QWORD PTR $T84988[rsp]
	mov	rdi, rax
	mov	rsi, QWORD PTR ray$[rsp]
	mov	ecx, 16
	rep movsb
	lea	r8, QWORD PTR $T84989[rsp]
	lea	rdx, QWORD PTR $T84988[rsp]
	lea	rcx, QWORD PTR $T84987[rsp]
	call	?vector_sub@@YA?ATcl_float4@@T1@0@Z	; vector_sub
	lea	rcx, QWORD PTR $T84994[rsp]
	mov	rdi, rcx
	mov	rsi, rax
	mov	ecx, 16
	rep movsb
	lea	rax, QWORD PTR $T7117[rsp]
	lea	rcx, QWORD PTR $T84994[rsp]
	mov	rdi, rax
	mov	rsi, rcx
	mov	ecx, 16
	rep movsb
	lea	rax, QWORD PTR v$[rsp]
	lea	rcx, QWORD PTR $T7117[rsp]
	mov	rdi, rax
	mov	rsi, rcx
	mov	ecx, 16
	rep movsb
; Line 138
	lea	rax, QWORD PTR $T84991[rsp]
	mov	rcx, QWORD PTR ray$[rsp]
	mov	rdi, rax
	lea	rsi, QWORD PTR [rcx+16]
	mov	ecx, 16
	rep movsb
	lea	rax, QWORD PTR $T84990[rsp]
	lea	rcx, QWORD PTR v$[rsp]
	mov	rdi, rax
	mov	rsi, rcx
	mov	ecx, 16
	rep movsb
	lea	rdx, QWORD PTR $T84991[rsp]
	lea	rcx, QWORD PTR $T84990[rsp]
	call	?soft_dot@@YAMTcl_float4@@0@Z		; soft_dot
	xorps	xmm0, DWORD PTR __mask@@NegFloat@
	movss	DWORD PTR b$[rsp], xmm0
; Line 139
	lea	rax, QWORD PTR $T84993[rsp]
	lea	rcx, QWORD PTR v$[rsp]
	mov	rdi, rax
	mov	rsi, rcx
	mov	ecx, 16
	rep movsb
	lea	rax, QWORD PTR $T84992[rsp]
	lea	rcx, QWORD PTR v$[rsp]
	mov	rdi, rax
	mov	rsi, rcx
	mov	ecx, 16
	rep movsb
	lea	rdx, QWORD PTR $T84993[rsp]
	lea	rcx, QWORD PTR $T84992[rsp]
	call	?soft_dot@@YAMTcl_float4@@0@Z		; soft_dot
	movss	xmm1, DWORD PTR b$[rsp]
	mulss	xmm1, DWORD PTR b$[rsp]
	subss	xmm1, xmm0
	movaps	xmm0, xmm1
	mov	rax, QWORD PTR p$[rsp]
	addss	xmm0, DWORD PTR [rax+88]
	movss	DWORD PTR det$[rsp], xmm0
; Line 140
	mov	DWORD PTR retval$[rsp], 0
; Line 141
	movss	xmm0, DWORD PTR det$[rsp]
	comiss	xmm0, DWORD PTR __real@00000000
	jbe	$LN6@sphere_int
; Line 143
	movss	xmm0, DWORD PTR det$[rsp]
	call	?sqrt@@YAMM@Z				; sqrt
	movss	DWORD PTR det$[rsp], xmm0
; Line 144
	movss	xmm0, DWORD PTR b$[rsp]
	subss	xmm0, DWORD PTR det$[rsp]
	movss	DWORD PTR i1$7122[rsp], xmm0
; Line 145
	movss	xmm0, DWORD PTR b$[rsp]
	addss	xmm0, DWORD PTR det$[rsp]
	movss	DWORD PTR i2$7123[rsp], xmm0
; Line 146
	movss	xmm0, DWORD PTR i2$7123[rsp]
	comiss	xmm0, DWORD PTR __real@00000000
	jbe	SHORT $LN5@sphere_int
; Line 148
	xorps	xmm0, xmm0
	comiss	xmm0, DWORD PTR i1$7122[rsp]
	jbe	SHORT $LN4@sphere_int
; Line 150
	mov	rax, QWORD PTR cumu_dist$[rsp]
	movss	xmm0, DWORD PTR [rax]
	comiss	xmm0, DWORD PTR i2$7123[rsp]
	jbe	SHORT $LN3@sphere_int
; Line 152
	mov	rax, QWORD PTR cumu_dist$[rsp]
	movss	xmm0, DWORD PTR i2$7123[rsp]
	movss	DWORD PTR [rax], xmm0
; Line 153
	mov	DWORD PTR retval$[rsp], -1
$LN3@sphere_int:
; Line 156
	jmp	SHORT $LN2@sphere_int
$LN4@sphere_int:
; Line 158
	mov	rax, QWORD PTR cumu_dist$[rsp]
	movss	xmm0, DWORD PTR [rax]
	comiss	xmm0, DWORD PTR i1$7122[rsp]
	jbe	SHORT $LN1@sphere_int
; Line 160
	mov	rax, QWORD PTR cumu_dist$[rsp]
	movss	xmm0, DWORD PTR i1$7122[rsp]
	movss	DWORD PTR [rax], xmm0
; Line 161
	mov	DWORD PTR retval$[rsp], 1
$LN1@sphere_int:
$LN2@sphere_int:
$LN5@sphere_int:
$LN6@sphere_int:
; Line 166
	mov	eax, DWORD PTR retval$[rsp]
; Line 167
	mov	edi, eax
	mov	rcx, rsp
	lea	rdx, OFFSET FLAT:?sphere_intersect@@YAHPEAUPrimitive@@PEAURay@@PEAM@Z$rtcFrameData
	call	_RTC_CheckStackVars
	mov	eax, edi
	mov	rcx, QWORD PTR __$ArrayPad$[rsp]
	xor	rcx, rsp
	call	__security_check_cookie
	add	rsp, 280				; 00000118H
	pop	rdi
	pop	rsi
	ret	0
?sphere_intersect@@YAHPEAUPrimitive@@PEAURay@@PEAM@Z ENDP ; sphere_intersect
_TEXT	ENDS
PUBLIC	?intersect@@YAHPEAUPrimitive@@PEAURay@@PEAM@Z	; intersect
pdata	SEGMENT
$pdata$?intersect@@YAHPEAUPrimitive@@PEAURay@@PEAM@Z DD imagerel $LN7
	DD	imagerel $LN7+120
	DD	imagerel $unwind$?intersect@@YAHPEAUPrimitive@@PEAURay@@PEAM@Z
pdata	ENDS
xdata	SEGMENT
$unwind$?intersect@@YAHPEAUPrimitive@@PEAURay@@PEAM@Z DD 022801H
	DD	070105214H
; Function compile flags: /Odtp /RTCsu
xdata	ENDS
_TEXT	SEGMENT
tv65 = 32
p$ = 64
ray$ = 72
cumu_dist$ = 80
?intersect@@YAHPEAUPrimitive@@PEAURay@@PEAM@Z PROC	; intersect
; Line 170
$LN7:
	mov	QWORD PTR [rsp+24], r8
	mov	QWORD PTR [rsp+16], rdx
	mov	QWORD PTR [rsp+8], rcx
	push	rdi
	sub	rsp, 48					; 00000030H
	mov	rdi, rsp
	mov	ecx, 12
	mov	eax, -858993460				; ccccccccH
	rep stosd
	mov	rcx, QWORD PTR [rsp+64]
; Line 171
	mov	rax, QWORD PTR p$[rsp]
	mov	eax, DWORD PTR [rax+40]
	mov	DWORD PTR tv65[rsp], eax
	cmp	DWORD PTR tv65[rsp], 0
	je	SHORT $LN2@intersect
	cmp	DWORD PTR tv65[rsp], 1
	je	SHORT $LN1@intersect
	jmp	SHORT $LN3@intersect
$LN2@intersect:
; Line 174
	mov	r8, QWORD PTR cumu_dist$[rsp]
	mov	rdx, QWORD PTR ray$[rsp]
	mov	rcx, QWORD PTR p$[rsp]
	call	?plane_intersect@@YAHPEAUPrimitive@@PEAURay@@PEAM@Z ; plane_intersect
	jmp	SHORT $LN5@intersect
$LN1@intersect:
; Line 176
	mov	r8, QWORD PTR cumu_dist$[rsp]
	mov	rdx, QWORD PTR ray$[rsp]
	mov	rcx, QWORD PTR p$[rsp]
	call	?sphere_intersect@@YAHPEAUPrimitive@@PEAURay@@PEAM@Z ; sphere_intersect
	jmp	SHORT $LN5@intersect
$LN3@intersect:
; Line 178
	xor	eax, eax
$LN5@intersect:
; Line 179
	add	rsp, 48					; 00000030H
	pop	rdi
	ret	0
?intersect@@YAHPEAUPrimitive@@PEAURay@@PEAM@Z ENDP	; intersect
_TEXT	ENDS
PUBLIC	$T85295
PUBLIC	$T85293
PUBLIC	$T85294
PUBLIC	$T85296
PUBLIC	$T85292
PUBLIC	$T85290
PUBLIC	$T85291
PUBLIC	$T85297
PUBLIC	$T85288
PUBLIC	$T85289
PUBLIC	$T85298
PUBLIC	__real@3fc00000
PUBLIC	$T85287
PUBLIC	$T85285
PUBLIC	$T85286
PUBLIC	$T85299
PUBLIC	$T85300
PUBLIC	$T85283
PUBLIC	$T85284
PUBLIC	$T85301
PUBLIC	$T85282
PUBLIC	$T85302
PUBLIC	$T85280
PUBLIC	$T85281
PUBLIC	$T85278
PUBLIC	$T85279
PUBLIC	$T85303
PUBLIC	$T85277
PUBLIC	$T85304
PUBLIC	$T85275
PUBLIC	$T85276
PUBLIC	$T85305
PUBLIC	__real@3a83126f
PUBLIC	$T85274
PUBLIC	$T85306
PUBLIC	$T85273
PUBLIC	$T85307
PUBLIC	$T85271
PUBLIC	$T85272
PUBLIC	$T85270
PUBLIC	$T85308
PUBLIC	$T85268
PUBLIC	$T85269
PUBLIC	$T85309
PUBLIC	$T85266
PUBLIC	$T85267
PUBLIC	$T85310
PUBLIC	$T85265
PUBLIC	$T85311
PUBLIC	__real@7f7fffff
PUBLIC	__$ArrayPad$
PUBLIC	?raytrace@@YAHPEAURay@@PEATcl_float4@@PEAM1PEAHPEAUPrimitive@@H@Z ; raytrace
pdata	SEGMENT
$pdata$?raytrace@@YAHPEAURay@@PEATcl_float4@@PEAM1PEAHPEAUPrimitive@@H@Z DD imagerel $LN22
	DD	imagerel $LN22+3370
	DD	imagerel $unwind$?raytrace@@YAHPEAURay@@PEATcl_float4@@PEAM1PEAHPEAUPrimitive@@H@Z
pdata	ENDS
xdata	SEGMENT
$unwind$?raytrace@@YAHPEAURay@@PEATcl_float4@@PEAM1PEAHPEAUPrimitive@@H@Z DD 044619H
	DD	0d1011dH
	DD	060157016H
	DD	imagerel __GSHandlerCheck
	DD	0670H
xdata	ENDS
;	COMDAT __real@3fc00000
CONST	SEGMENT
__real@3fc00000 DD 03fc00000r			; 1.5
CONST	ENDS
;	COMDAT __real@3a83126f
CONST	SEGMENT
__real@3a83126f DD 03a83126fr			; 0.001
CONST	ENDS
;	COMDAT __real@7f7fffff
CONST	SEGMENT
__real@7f7fffff DD 07f7fffffr			; 3.40282e+038
?raytrace@@YAHPEAURay@@PEATcl_float4@@PEAM1PEAHPEAUPrimitive@@H@Z$rtcName$0 DB 04cH ; raytrace
	DB	05fH
	DB	073H
	DB	06fH
	DB	066H
	DB	074H
	DB	05fH
	DB	06cH
	DB	065H
	DB	06eH
	DB	067H
	DB	074H
	DB	068H
	DB	00H
	ORG $+2
?raytrace@@YAHPEAURay@@PEATcl_float4@@PEAM1PEAHPEAUPrimitive@@H@Z$rtcName$1 DB 04cH ; raytrace
	DB	00H
	ORG $+2
?raytrace@@YAHPEAURay@@PEATcl_float4@@PEAM1PEAHPEAUPrimitive@@H@Z$rtcName$2 DB 072H ; raytrace
	DB	00H
	ORG $+2
?raytrace@@YAHPEAURay@@PEATcl_float4@@PEAM1PEAHPEAUPrimitive@@H@Z$rtcName$3 DB 04eH ; raytrace
	DB	00H
	ORG $+2
?raytrace@@YAHPEAURay@@PEATcl_float4@@PEAM1PEAHPEAUPrimitive@@H@Z$rtcName$4 DB 056H ; raytrace
	DB	00H
	ORG $+2
?raytrace@@YAHPEAURay@@PEATcl_float4@@PEAM1PEAHPEAUPrimitive@@H@Z$rtcName$5 DB 052H ; raytrace
	DB	00H
	ORG $+6
?raytrace@@YAHPEAURay@@PEATcl_float4@@PEAM1PEAHPEAUPrimitive@@H@Z$rtcFrameData DD 06H ; raytrace
	DD	00H
	DQ	FLAT:?raytrace@@YAHPEAURay@@PEATcl_float4@@PEAM1PEAHPEAUPrimitive@@H@Z$rtcVarDesc
	ORG $+8
?raytrace@@YAHPEAURay@@PEATcl_float4@@PEAM1PEAHPEAUPrimitive@@H@Z$rtcVarDesc DD 0218H ; raytrace
	DD	010H
	DQ	FLAT:?raytrace@@YAHPEAURay@@PEATcl_float4@@PEAM1PEAHPEAUPrimitive@@H@Z$rtcName$5
	DD	01e8H
	DD	010H
	DQ	FLAT:?raytrace@@YAHPEAURay@@PEATcl_float4@@PEAM1PEAHPEAUPrimitive@@H@Z$rtcName$4
	DD	0178H
	DD	010H
	DQ	FLAT:?raytrace@@YAHPEAURay@@PEATcl_float4@@PEAM1PEAHPEAUPrimitive@@H@Z$rtcName$3
	DD	0f0H
	DD	044H
	DQ	FLAT:?raytrace@@YAHPEAURay@@PEATcl_float4@@PEAM1PEAHPEAUPrimitive@@H@Z$rtcName$2
	DD	098H
	DD	010H
	DQ	FLAT:?raytrace@@YAHPEAURay@@PEATcl_float4@@PEAM1PEAHPEAUPrimitive@@H@Z$rtcName$1
	DD	064H
	DD	04H
	DQ	FLAT:?raytrace@@YAHPEAURay@@PEATcl_float4@@PEAM1PEAHPEAUPrimitive@@H@Z$rtcName$0
; Function compile flags: /Odtp /RTCsu
_TEXT	SEGMENT
prim_index$ = 32
s$7163 = 36
res$7167 = 40
$T7172 = 48
$T7173 = 64
l$7174 = 80
shade$7179 = 84
L_soft_length$7180 = 100
$T7181 = 120
L$7182 = 152
$T7183 = 184
$T7184 = 200
r$7186 = 240
$T7187 = 328
$T7188 = 344
s$7189 = 360
N$7194 = 376
$T7195 = 408
dot_prod$7197 = 424
diff$7199 = 428
$T7200 = 432
$T7201 = 448
$T7202 = 464
V$7204 = 488
R$7205 = 536
$T7206 = 568
$T7207 = 584
dot_prod$7208 = 600
spec$7210 = 604
$T7211 = 608
$T7212 = 624
$T85250 = 648
$T85251 = 664
$T85252 = 680
$T85253 = 696
$T85254 = 712
$T85255 = 728
$T85256 = 744
$T85257 = 760
$T85258 = 776
$T85259 = 792
$T85260 = 808
$T85261 = 824
$T85262 = 840
$T85263 = 856
$T85264 = 872
$T85265 = 896
$T85266 = 912
$T85267 = 928
$T85268 = 944
$T85269 = 960
$T85270 = 976
$T85271 = 992
$T85272 = 1008
$T85273 = 1024
$T85274 = 1040
$T85275 = 1056
$T85276 = 1072
$T85277 = 1088
$T85278 = 1104
$T85279 = 1120
$T85280 = 1136
$T85281 = 1152
$T85282 = 1168
$T85283 = 1184
$T85284 = 1200
$T85285 = 1216
$T85286 = 1232
$T85287 = 1248
$T85288 = 1264
$T85289 = 1280
$T85290 = 1296
$T85291 = 1312
$T85292 = 1328
$T85293 = 1344
$T85294 = 1360
$T85295 = 1376
$T85296 = 1392
$T85297 = 1408
$T85298 = 1424
$T85299 = 1440
$T85300 = 1456
$T85301 = 1472
$T85302 = 1488
$T85303 = 1504
$T85304 = 1520
$T85305 = 1536
$T85306 = 1552
$T85307 = 1568
$T85308 = 1584
$T85309 = 1600
$T85310 = 1616
$T85311 = 1632
__$ArrayPad$ = 1648
a_ray$ = 1696
a_acc$ = 1704
a_dist$ = 1712
point_intersect$ = 1720
result$ = 1728
primitives$ = 1736
n_primitives$ = 1744
?raytrace@@YAHPEAURay@@PEATcl_float4@@PEAM1PEAHPEAUPrimitive@@H@Z PROC ; raytrace
; Line 194
$LN22:
	mov	QWORD PTR [rsp+32], r9
	mov	QWORD PTR [rsp+24], r8
	mov	QWORD PTR [rsp+16], rdx
	mov	QWORD PTR [rsp+8], rcx
	push	rsi
	push	rdi
	sub	rsp, 1672				; 00000688H
	mov	rdi, rsp
	mov	ecx, 418				; 000001a2H
	mov	eax, -858993460				; ccccccccH
	rep stosd
	mov	rcx, QWORD PTR [rsp+1696]
	mov	rax, QWORD PTR __security_cookie
	xor	rax, rsp
	mov	QWORD PTR __$ArrayPad$[rsp], rax
; Line 195
	mov	rax, QWORD PTR a_dist$[rsp]
	movss	xmm0, DWORD PTR __real@7f7fffff
	movss	DWORD PTR [rax], xmm0
; Line 196
	mov	DWORD PTR prim_index$[rsp], -1
; Line 199
	mov	DWORD PTR s$7163[rsp], 0
	jmp	SHORT $LN19@raytrace
$LN18@raytrace:
	mov	eax, DWORD PTR s$7163[rsp]
	inc	eax
	mov	DWORD PTR s$7163[rsp], eax
$LN19@raytrace:
	mov	eax, DWORD PTR n_primitives$[rsp]
	cmp	DWORD PTR s$7163[rsp], eax
	jge	SHORT $LN17@raytrace
; Line 202
	movsxd	rax, DWORD PTR s$7163[rsp]
	imul	rax, 96					; 00000060H
	mov	rcx, QWORD PTR primitives$[rsp]
	add	rcx, rax
	mov	rax, rcx
	mov	r8, QWORD PTR a_dist$[rsp]
	mov	rdx, QWORD PTR a_ray$[rsp]
	mov	rcx, rax
	call	?intersect@@YAHPEAUPrimitive@@PEAURay@@PEAM@Z ; intersect
	mov	DWORD PTR res$7167[rsp], eax
	cmp	DWORD PTR res$7167[rsp], 0
	je	SHORT $LN16@raytrace
; Line 204
	mov	eax, DWORD PTR s$7163[rsp]
	mov	DWORD PTR prim_index$[rsp], eax
; Line 205
	mov	rax, QWORD PTR result$[rsp]
	mov	ecx, DWORD PTR res$7167[rsp]
	mov	DWORD PTR [rax], ecx
$LN16@raytrace:
; Line 207
	jmp	SHORT $LN18@raytrace
$LN17@raytrace:
; Line 209
	cmp	DWORD PTR prim_index$[rsp], -1
	jne	SHORT $LN15@raytrace
	mov	eax, -1
	jmp	$LN20@raytrace
$LN15@raytrace:
; Line 211
	movsxd	rax, DWORD PTR prim_index$[rsp]
	imul	rax, 96					; 00000060H
	mov	rcx, QWORD PTR primitives$[rsp]
	cmp	DWORD PTR [rcx+rax+44], 0
	je	SHORT $LN14@raytrace
; Line 213
	movsxd	rax, DWORD PTR prim_index$[rsp]
	imul	rax, 96					; 00000060H
	lea	rcx, QWORD PTR $T85311[rsp]
	mov	rdx, QWORD PTR primitives$[rsp]
	mov	rdi, rcx
	lea	rsi, QWORD PTR [rdx+rax]
	mov	ecx, 16
	rep movsb
	lea	rax, QWORD PTR $T85311[rsp]
	mov	rdi, QWORD PTR a_acc$[rsp]
	mov	rsi, rax
	mov	ecx, 16
	rep movsb
; Line 215
	jmp	$LN13@raytrace
$LN14@raytrace:
; Line 217
	lea	rax, QWORD PTR $T85265[rsp]
	mov	rcx, QWORD PTR a_ray$[rsp]
	mov	rdi, rax
	lea	rsi, QWORD PTR [rcx+16]
	mov	ecx, 16
	rep movsb
	mov	rax, QWORD PTR a_dist$[rsp]
	movss	xmm2, DWORD PTR [rax]
	lea	rdx, QWORD PTR $T85265[rsp]
	lea	rcx, QWORD PTR $T85250[rsp]
	call	?vector_scalar_mul@@YA?ATcl_float4@@T1@M@Z ; vector_scalar_mul
	lea	rcx, QWORD PTR $T85310[rsp]
	mov	rdi, rcx
	mov	rsi, rax
	mov	ecx, 16
	rep movsb
	lea	rax, QWORD PTR $T7172[rsp]
	lea	rcx, QWORD PTR $T85310[rsp]
	mov	rdi, rax
	mov	rsi, rcx
	mov	ecx, 16
	rep movsb
	lea	rax, QWORD PTR $T85267[rsp]
	lea	rcx, QWORD PTR $T7172[rsp]
	mov	rdi, rax
	mov	rsi, rcx
	mov	ecx, 16
	rep movsb
	lea	rax, QWORD PTR $T85266[rsp]
	mov	rdi, rax
	mov	rsi, QWORD PTR a_ray$[rsp]
	mov	ecx, 16
	rep movsb
	lea	r8, QWORD PTR $T85267[rsp]
	lea	rdx, QWORD PTR $T85266[rsp]
	lea	rcx, QWORD PTR $T85251[rsp]
	call	?vector_add@@YA?ATcl_float4@@T1@0@Z	; vector_add
	lea	rcx, QWORD PTR $T85309[rsp]
	mov	rdi, rcx
	mov	rsi, rax
	mov	ecx, 16
	rep movsb
	lea	rax, QWORD PTR $T7173[rsp]
	lea	rcx, QWORD PTR $T85309[rsp]
	mov	rdi, rax
	mov	rsi, rcx
	mov	ecx, 16
	rep movsb
	lea	rax, QWORD PTR $T7173[rsp]
	mov	rdi, QWORD PTR point_intersect$[rsp]
	mov	rsi, rax
	mov	ecx, 16
	rep movsb
; Line 219
	mov	DWORD PTR l$7174[rsp], 0
	jmp	SHORT $LN12@raytrace
$LN11@raytrace:
	mov	eax, DWORD PTR l$7174[rsp]
	inc	eax
	mov	DWORD PTR l$7174[rsp], eax
$LN12@raytrace:
	mov	eax, DWORD PTR n_primitives$[rsp]
	cmp	DWORD PTR l$7174[rsp], eax
	jge	$LN10@raytrace
; Line 221
	movsxd	rax, DWORD PTR l$7174[rsp]
	imul	rax, 96					; 00000060H
	mov	rcx, QWORD PTR primitives$[rsp]
	cmp	DWORD PTR [rcx+rax+44], 0
	je	$LN9@raytrace
; Line 224
	movss	xmm0, DWORD PTR __real@3f800000
	movss	DWORD PTR shade$7179[rsp], xmm0
; Line 225
	lea	rax, QWORD PTR $T85269[rsp]
	mov	rdi, rax
	mov	rsi, QWORD PTR point_intersect$[rsp]
	mov	ecx, 16
	rep movsb
	movsxd	rax, DWORD PTR l$7174[rsp]
	imul	rax, 96					; 00000060H
	lea	rcx, QWORD PTR $T85268[rsp]
	mov	rdx, QWORD PTR primitives$[rsp]
	mov	rdi, rcx
	lea	rsi, QWORD PTR [rdx+rax+64]
	mov	ecx, 16
	rep movsb
	lea	r8, QWORD PTR $T85269[rsp]
	lea	rdx, QWORD PTR $T85268[rsp]
	lea	rcx, QWORD PTR $T85252[rsp]
	call	?vector_sub@@YA?ATcl_float4@@T1@0@Z	; vector_sub
	lea	rcx, QWORD PTR $T85308[rsp]
	mov	rdi, rcx
	mov	rsi, rax
	mov	ecx, 16
	rep movsb
	lea	rax, QWORD PTR $T7181[rsp]
	lea	rcx, QWORD PTR $T85308[rsp]
	mov	rdi, rax
	mov	rsi, rcx
	mov	ecx, 16
	rep movsb
	lea	rax, QWORD PTR $T85270[rsp]
	lea	rcx, QWORD PTR $T7181[rsp]
	mov	rdi, rax
	mov	rsi, rcx
	mov	ecx, 16
	rep movsb
	lea	rcx, QWORD PTR $T85270[rsp]
	call	?soft_length@@YAMTcl_float4@@@Z		; soft_length
	movss	DWORD PTR L_soft_length$7180[rsp], xmm0
; Line 226
	lea	rax, QWORD PTR $T85272[rsp]
	mov	rdi, rax
	mov	rsi, QWORD PTR point_intersect$[rsp]
	mov	ecx, 16
	rep movsb
	movsxd	rax, DWORD PTR l$7174[rsp]
	imul	rax, 96					; 00000060H
	lea	rcx, QWORD PTR $T85271[rsp]
	mov	rdx, QWORD PTR primitives$[rsp]
	mov	rdi, rcx
	lea	rsi, QWORD PTR [rdx+rax+64]
	mov	ecx, 16
	rep movsb
	lea	r8, QWORD PTR $T85272[rsp]
	lea	rdx, QWORD PTR $T85271[rsp]
	lea	rcx, QWORD PTR $T85253[rsp]
	call	?vector_sub@@YA?ATcl_float4@@T1@0@Z	; vector_sub
	lea	rcx, QWORD PTR $T85307[rsp]
	mov	rdi, rcx
	mov	rsi, rax
	mov	ecx, 16
	rep movsb
	lea	rax, QWORD PTR $T7183[rsp]
	lea	rcx, QWORD PTR $T85307[rsp]
	mov	rdi, rax
	mov	rsi, rcx
	mov	ecx, 16
	rep movsb
	lea	rax, QWORD PTR $T85273[rsp]
	lea	rcx, QWORD PTR $T7183[rsp]
	mov	rdi, rax
	mov	rsi, rcx
	mov	ecx, 16
	rep movsb
	lea	rdx, QWORD PTR $T85273[rsp]
	lea	rcx, QWORD PTR $T85254[rsp]
	call	?soft_normalize@@YA?ATcl_float4@@T1@@Z	; soft_normalize
	lea	rcx, QWORD PTR $T85306[rsp]
	mov	rdi, rcx
	mov	rsi, rax
	mov	ecx, 16
	rep movsb
	lea	rax, QWORD PTR $T7184[rsp]
	lea	rcx, QWORD PTR $T85306[rsp]
	mov	rdi, rax
	mov	rsi, rcx
	mov	ecx, 16
	rep movsb
	lea	rax, QWORD PTR L$7182[rsp]
	lea	rcx, QWORD PTR $T7184[rsp]
	mov	rdi, rax
	mov	rsi, rcx
	mov	ecx, 16
	rep movsb
; Line 227
	movsxd	rax, DWORD PTR l$7174[rsp]
	imul	rax, 96					; 00000060H
	mov	rcx, QWORD PTR primitives$[rsp]
	cmp	DWORD PTR [rcx+rax+40], 1
	jne	$LN8@raytrace
; Line 230
	lea	rax, QWORD PTR $T85274[rsp]
	lea	rcx, QWORD PTR L$7182[rsp]
	mov	rdi, rax
	mov	rsi, rcx
	mov	ecx, 16
	rep movsb
	movss	xmm2, DWORD PTR __real@3a83126f
	lea	rdx, QWORD PTR $T85274[rsp]
	lea	rcx, QWORD PTR $T85255[rsp]
	call	?vector_scalar_mul@@YA?ATcl_float4@@T1@M@Z ; vector_scalar_mul
	lea	rcx, QWORD PTR $T85305[rsp]
	mov	rdi, rcx
	mov	rsi, rax
	mov	ecx, 16
	rep movsb
	lea	rax, QWORD PTR $T7187[rsp]
	lea	rcx, QWORD PTR $T85305[rsp]
	mov	rdi, rax
	mov	rsi, rcx
	mov	ecx, 16
	rep movsb
	lea	rax, QWORD PTR $T85276[rsp]
	lea	rcx, QWORD PTR $T7187[rsp]
	mov	rdi, rax
	mov	rsi, rcx
	mov	ecx, 16
	rep movsb
	lea	rax, QWORD PTR $T85275[rsp]
	mov	rdi, rax
	mov	rsi, QWORD PTR point_intersect$[rsp]
	mov	ecx, 16
	rep movsb
	lea	r8, QWORD PTR $T85276[rsp]
	lea	rdx, QWORD PTR $T85275[rsp]
	lea	rcx, QWORD PTR $T85256[rsp]
	call	?vector_add@@YA?ATcl_float4@@T1@0@Z	; vector_add
	lea	rcx, QWORD PTR $T85304[rsp]
	mov	rdi, rcx
	mov	rsi, rax
	mov	ecx, 16
	rep movsb
	lea	rax, QWORD PTR $T7188[rsp]
	lea	rcx, QWORD PTR $T85304[rsp]
	mov	rdi, rax
	mov	rsi, rcx
	mov	ecx, 16
	rep movsb
	lea	rax, QWORD PTR r$7186[rsp]
	lea	rcx, QWORD PTR $T7188[rsp]
	mov	rdi, rax
	mov	rsi, rcx
	mov	ecx, 16
	rep movsb
; Line 231
	lea	rax, QWORD PTR r$7186[rsp+16]
	lea	rcx, QWORD PTR L$7182[rsp]
	mov	rdi, rax
	mov	rsi, rcx
	mov	ecx, 16
	rep movsb
; Line 232
	mov	DWORD PTR s$7189[rsp], 0
$LN7@raytrace:
; Line 233
	mov	eax, DWORD PTR n_primitives$[rsp]
	cmp	DWORD PTR s$7189[rsp], eax
	jge	$LN6@raytrace
; Line 235
	movsxd	rax, DWORD PTR s$7189[rsp]
	imul	rax, 96					; 00000060H
	mov	rcx, QWORD PTR primitives$[rsp]
	add	rcx, rax
	mov	rax, rcx
	movsxd	rcx, DWORD PTR l$7174[rsp]
	imul	rcx, 96					; 00000060H
	mov	rdx, QWORD PTR primitives$[rsp]
	add	rdx, rcx
	mov	rcx, rdx
	cmp	rax, rcx
	je	SHORT $LN5@raytrace
	movsxd	rax, DWORD PTR s$7189[rsp]
	imul	rax, 96					; 00000060H
	mov	rcx, QWORD PTR primitives$[rsp]
	cmp	DWORD PTR [rcx+rax+44], 0
	jne	SHORT $LN5@raytrace
	movsxd	rax, DWORD PTR s$7189[rsp]
	imul	rax, 96					; 00000060H
	mov	rcx, QWORD PTR primitives$[rsp]
	add	rcx, rax
	mov	rax, rcx
	lea	r8, QWORD PTR L_soft_length$7180[rsp]
	lea	rdx, QWORD PTR r$7186[rsp]
	mov	rcx, rax
	call	?intersect@@YAHPEAUPrimitive@@PEAURay@@PEAM@Z ; intersect
	test	eax, eax
	je	SHORT $LN5@raytrace
; Line 237
	xorps	xmm0, xmm0
	movss	DWORD PTR shade$7179[rsp], xmm0
$LN5@raytrace:
; Line 239
	mov	eax, DWORD PTR s$7189[rsp]
	inc	eax
	mov	DWORD PTR s$7189[rsp], eax
; Line 240
	jmp	$LN7@raytrace
$LN6@raytrace:
$LN8@raytrace:
; Line 243
	lea	rax, QWORD PTR $T85277[rsp]
	mov	rdi, rax
	mov	rsi, QWORD PTR point_intersect$[rsp]
	mov	ecx, 16
	rep movsb
	movsxd	rax, DWORD PTR prim_index$[rsp]
	imul	rax, 96					; 00000060H
	mov	rcx, QWORD PTR primitives$[rsp]
	add	rcx, rax
	mov	rax, rcx
	lea	r8, QWORD PTR $T85277[rsp]
	mov	rdx, rax
	lea	rcx, QWORD PTR $T85257[rsp]
	call	?get_normal@@YA?ATcl_float4@@PEAUPrimitive@@T1@@Z ; get_normal
	lea	rcx, QWORD PTR $T85303[rsp]
	mov	rdi, rcx
	mov	rsi, rax
	mov	ecx, 16
	rep movsb
	lea	rax, QWORD PTR $T7195[rsp]
	lea	rcx, QWORD PTR $T85303[rsp]
	mov	rdi, rax
	mov	rsi, rcx
	mov	ecx, 16
	rep movsb
	lea	rax, QWORD PTR N$7194[rsp]
	lea	rcx, QWORD PTR $T7195[rsp]
	mov	rdi, rax
	mov	rsi, rcx
	mov	ecx, 16
	rep movsb
; Line 244
	movsxd	rax, DWORD PTR prim_index$[rsp]
	imul	rax, 96					; 00000060H
	mov	rcx, QWORD PTR primitives$[rsp]
	movss	xmm0, DWORD PTR [rcx+rax+20]
	comiss	xmm0, DWORD PTR __real@00000000
	jbe	$LN4@raytrace
; Line 246
	lea	rax, QWORD PTR $T85279[rsp]
	lea	rcx, QWORD PTR L$7182[rsp]
	mov	rdi, rax
	mov	rsi, rcx
	mov	ecx, 16
	rep movsb
	lea	rax, QWORD PTR $T85278[rsp]
	lea	rcx, QWORD PTR N$7194[rsp]
	mov	rdi, rax
	mov	rsi, rcx
	mov	ecx, 16
	rep movsb
	lea	rdx, QWORD PTR $T85279[rsp]
	lea	rcx, QWORD PTR $T85278[rsp]
	call	?soft_dot@@YAMTcl_float4@@0@Z		; soft_dot
	movss	DWORD PTR dot_prod$7197[rsp], xmm0
; Line 247
	movss	xmm0, DWORD PTR dot_prod$7197[rsp]
	comiss	xmm0, DWORD PTR __real@00000000
	jbe	$LN3@raytrace
; Line 249
	movsxd	rax, DWORD PTR prim_index$[rsp]
	imul	rax, 96					; 00000060H
	mov	rcx, QWORD PTR primitives$[rsp]
	movss	xmm0, DWORD PTR dot_prod$7197[rsp]
	mulss	xmm0, DWORD PTR [rcx+rax+20]
	mulss	xmm0, DWORD PTR shade$7179[rsp]
	movss	DWORD PTR diff$7199[rsp], xmm0
; Line 250
	movsxd	rax, DWORD PTR l$7174[rsp]
	imul	rax, 96					; 00000060H
	lea	rcx, QWORD PTR $T85281[rsp]
	mov	rdx, QWORD PTR primitives$[rsp]
	mov	rdi, rcx
	lea	rsi, QWORD PTR [rdx+rax]
	mov	ecx, 16
	rep movsb
	movsxd	rax, DWORD PTR prim_index$[rsp]
	imul	rax, 96					; 00000060H
	lea	rcx, QWORD PTR $T85280[rsp]
	mov	rdx, QWORD PTR primitives$[rsp]
	mov	rdi, rcx
	lea	rsi, QWORD PTR [rdx+rax]
	mov	ecx, 16
	rep movsb
	lea	r8, QWORD PTR $T85281[rsp]
	lea	rdx, QWORD PTR $T85280[rsp]
	lea	rcx, QWORD PTR $T85258[rsp]
	call	?vector_mul@@YA?ATcl_float4@@T1@0@Z	; vector_mul
	lea	rcx, QWORD PTR $T85302[rsp]
	mov	rdi, rcx
	mov	rsi, rax
	mov	ecx, 16
	rep movsb
	lea	rax, QWORD PTR $T7200[rsp]
	lea	rcx, QWORD PTR $T85302[rsp]
	mov	rdi, rax
	mov	rsi, rcx
	mov	ecx, 16
	rep movsb
	lea	rax, QWORD PTR $T85282[rsp]
	lea	rcx, QWORD PTR $T7200[rsp]
	mov	rdi, rax
	mov	rsi, rcx
	mov	ecx, 16
	rep movsb
	movss	xmm2, DWORD PTR diff$7199[rsp]
	lea	rdx, QWORD PTR $T85282[rsp]
	lea	rcx, QWORD PTR $T85259[rsp]
	call	?vector_scalar_mul@@YA?ATcl_float4@@T1@M@Z ; vector_scalar_mul
	lea	rcx, QWORD PTR $T85301[rsp]
	mov	rdi, rcx
	mov	rsi, rax
	mov	ecx, 16
	rep movsb
	lea	rax, QWORD PTR $T7201[rsp]
	lea	rcx, QWORD PTR $T85301[rsp]
	mov	rdi, rax
	mov	rsi, rcx
	mov	ecx, 16
	rep movsb
	lea	rax, QWORD PTR $T85284[rsp]
	lea	rcx, QWORD PTR $T7201[rsp]
	mov	rdi, rax
	mov	rsi, rcx
	mov	ecx, 16
	rep movsb
	lea	rax, QWORD PTR $T85283[rsp]
	mov	rdi, rax
	mov	rsi, QWORD PTR a_acc$[rsp]
	mov	ecx, 16
	rep movsb
	lea	r8, QWORD PTR $T85284[rsp]
	lea	rdx, QWORD PTR $T85283[rsp]
	lea	rcx, QWORD PTR $T85260[rsp]
	call	?vector_add@@YA?ATcl_float4@@T1@0@Z	; vector_add
	lea	rcx, QWORD PTR $T85300[rsp]
	mov	rdi, rcx
	mov	rsi, rax
	mov	ecx, 16
	rep movsb
	lea	rax, QWORD PTR $T7202[rsp]
	lea	rcx, QWORD PTR $T85300[rsp]
	mov	rdi, rax
	mov	rsi, rcx
	mov	ecx, 16
	rep movsb
	lea	rax, QWORD PTR $T7202[rsp]
	mov	rdi, QWORD PTR a_acc$[rsp]
	mov	rsi, rax
	mov	ecx, 16
	rep movsb
$LN3@raytrace:
$LN4@raytrace:
; Line 254
	movsxd	rax, DWORD PTR prim_index$[rsp]
	imul	rax, 96					; 00000060H
	mov	rcx, QWORD PTR primitives$[rsp]
	movss	xmm0, DWORD PTR [rcx+rax+32]
	comiss	xmm0, DWORD PTR __real@00000000
	jbe	$LN2@raytrace
; Line 256
	lea	rax, QWORD PTR $T85299[rsp]
	mov	rcx, QWORD PTR a_ray$[rsp]
	mov	rdi, rax
	lea	rsi, QWORD PTR [rcx+16]
	mov	ecx, 16
	rep movsb
	lea	rax, QWORD PTR V$7204[rsp]
	lea	rcx, QWORD PTR $T85299[rsp]
	mov	rdi, rax
	mov	rsi, rcx
	mov	ecx, 16
	rep movsb
; Line 257
	lea	rax, QWORD PTR $T85286[rsp]
	lea	rcx, QWORD PTR N$7194[rsp]
	mov	rdi, rax
	mov	rsi, rcx
	mov	ecx, 16
	rep movsb
	lea	rax, QWORD PTR $T85285[rsp]
	lea	rcx, QWORD PTR L$7182[rsp]
	mov	rdi, rax
	mov	rsi, rcx
	mov	ecx, 16
	rep movsb
	lea	rax, QWORD PTR $T85287[rsp]
	lea	rcx, QWORD PTR N$7194[rsp]
	mov	rdi, rax
	mov	rsi, rcx
	mov	ecx, 16
	rep movsb
	lea	rdx, QWORD PTR $T85286[rsp]
	lea	rcx, QWORD PTR $T85285[rsp]
	call	?soft_dot@@YAMTcl_float4@@0@Z		; soft_dot
	mulss	xmm0, DWORD PTR __real@3fc00000
	movaps	xmm2, xmm0
	lea	rdx, QWORD PTR $T85287[rsp]
	lea	rcx, QWORD PTR $T85261[rsp]
	call	?vector_scalar_mul@@YA?ATcl_float4@@T1@M@Z ; vector_scalar_mul
	lea	rcx, QWORD PTR $T85298[rsp]
	mov	rdi, rcx
	mov	rsi, rax
	mov	ecx, 16
	rep movsb
	lea	rax, QWORD PTR $T7206[rsp]
	lea	rcx, QWORD PTR $T85298[rsp]
	mov	rdi, rax
	mov	rsi, rcx
	mov	ecx, 16
	rep movsb
	lea	rax, QWORD PTR $T85289[rsp]
	lea	rcx, QWORD PTR $T7206[rsp]
	mov	rdi, rax
	mov	rsi, rcx
	mov	ecx, 16
	rep movsb
	lea	rax, QWORD PTR $T85288[rsp]
	lea	rcx, QWORD PTR L$7182[rsp]
	mov	rdi, rax
	mov	rsi, rcx
	mov	ecx, 16
	rep movsb
	lea	r8, QWORD PTR $T85289[rsp]
	lea	rdx, QWORD PTR $T85288[rsp]
	lea	rcx, QWORD PTR $T85262[rsp]
	call	?vector_sub@@YA?ATcl_float4@@T1@0@Z	; vector_sub
	lea	rcx, QWORD PTR $T85297[rsp]
	mov	rdi, rcx
	mov	rsi, rax
	mov	ecx, 16
	rep movsb
	lea	rax, QWORD PTR $T7207[rsp]
	lea	rcx, QWORD PTR $T85297[rsp]
	mov	rdi, rax
	mov	rsi, rcx
	mov	ecx, 16
	rep movsb
	lea	rax, QWORD PTR R$7205[rsp]
	lea	rcx, QWORD PTR $T7207[rsp]
	mov	rdi, rax
	mov	rsi, rcx
	mov	ecx, 16
	rep movsb
; Line 258
	lea	rax, QWORD PTR $T85291[rsp]
	lea	rcx, QWORD PTR R$7205[rsp]
	mov	rdi, rax
	mov	rsi, rcx
	mov	ecx, 16
	rep movsb
	lea	rax, QWORD PTR $T85290[rsp]
	lea	rcx, QWORD PTR V$7204[rsp]
	mov	rdi, rax
	mov	rsi, rcx
	mov	ecx, 16
	rep movsb
	lea	rdx, QWORD PTR $T85291[rsp]
	lea	rcx, QWORD PTR $T85290[rsp]
	call	?soft_dot@@YAMTcl_float4@@0@Z		; soft_dot
	movss	DWORD PTR dot_prod$7208[rsp], xmm0
; Line 259
	movss	xmm0, DWORD PTR dot_prod$7208[rsp]
	comiss	xmm0, DWORD PTR __real@00000000
	jbe	$LN1@raytrace
; Line 261
	mov	edx, 20
	movss	xmm0, DWORD PTR dot_prod$7208[rsp]
	call	?pow@@YAMMH@Z				; pow
	movsxd	rax, DWORD PTR prim_index$[rsp]
	imul	rax, 96					; 00000060H
	mov	rcx, QWORD PTR primitives$[rsp]
	mulss	xmm0, DWORD PTR [rcx+rax+32]
	mulss	xmm0, DWORD PTR shade$7179[rsp]
	movss	DWORD PTR spec$7210[rsp], xmm0
; Line 262
	movsxd	rax, DWORD PTR l$7174[rsp]
	imul	rax, 96					; 00000060H
	lea	rcx, QWORD PTR $T85292[rsp]
	mov	rdx, QWORD PTR primitives$[rsp]
	mov	rdi, rcx
	lea	rsi, QWORD PTR [rdx+rax]
	mov	ecx, 16
	rep movsb
	movss	xmm2, DWORD PTR spec$7210[rsp]
	lea	rdx, QWORD PTR $T85292[rsp]
	lea	rcx, QWORD PTR $T85263[rsp]
	call	?vector_scalar_mul@@YA?ATcl_float4@@T1@M@Z ; vector_scalar_mul
	lea	rcx, QWORD PTR $T85296[rsp]
	mov	rdi, rcx
	mov	rsi, rax
	mov	ecx, 16
	rep movsb
	lea	rax, QWORD PTR $T7211[rsp]
	lea	rcx, QWORD PTR $T85296[rsp]
	mov	rdi, rax
	mov	rsi, rcx
	mov	ecx, 16
	rep movsb
	lea	rax, QWORD PTR $T85294[rsp]
	lea	rcx, QWORD PTR $T7211[rsp]
	mov	rdi, rax
	mov	rsi, rcx
	mov	ecx, 16
	rep movsb
	lea	rax, QWORD PTR $T85293[rsp]
	mov	rdi, rax
	mov	rsi, QWORD PTR a_acc$[rsp]
	mov	ecx, 16
	rep movsb
	lea	r8, QWORD PTR $T85294[rsp]
	lea	rdx, QWORD PTR $T85293[rsp]
	lea	rcx, QWORD PTR $T85264[rsp]
	call	?vector_add@@YA?ATcl_float4@@T1@0@Z	; vector_add
	lea	rcx, QWORD PTR $T85295[rsp]
	mov	rdi, rcx
	mov	rsi, rax
	mov	ecx, 16
	rep movsb
	lea	rax, QWORD PTR $T7212[rsp]
	lea	rcx, QWORD PTR $T85295[rsp]
	mov	rdi, rax
	mov	rsi, rcx
	mov	ecx, 16
	rep movsb
	lea	rax, QWORD PTR $T7212[rsp]
	mov	rdi, QWORD PTR a_acc$[rsp]
	mov	rsi, rax
	mov	ecx, 16
	rep movsb
$LN1@raytrace:
$LN2@raytrace:
$LN9@raytrace:
; Line 266
	jmp	$LN11@raytrace
$LN10@raytrace:
$LN13@raytrace:
; Line 269
	mov	eax, DWORD PTR prim_index$[rsp]
$LN20@raytrace:
; Line 270
	mov	rdi, rax
	mov	rcx, rsp
	lea	rdx, OFFSET FLAT:?raytrace@@YAHPEAURay@@PEATcl_float4@@PEAM1PEAHPEAUPrimitive@@H@Z$rtcFrameData
	call	_RTC_CheckStackVars
	mov	rax, rdi
	mov	rcx, QWORD PTR __$ArrayPad$[rsp]
	xor	rcx, rsp
	call	__security_check_cookie
	add	rsp, 1672				; 00000688H
	pop	rdi
	pop	rsi
	ret	0
?raytrace@@YAHPEAURay@@PEATcl_float4@@PEAM1PEAHPEAUPrimitive@@H@Z ENDP ; raytrace
_TEXT	ENDS
PUBLIC	__real@437f0000
PUBLIC	__real@41e00000
PUBLIC	$T85422
PUBLIC	$T85420
PUBLIC	$T85421
PUBLIC	$T85423
PUBLIC	$T85419
PUBLIC	$T85424
PUBLIC	__real@3e19999a
PUBLIC	$T85418
PUBLIC	$T85425
PUBLIC	$T85416
PUBLIC	$T85417
PUBLIC	$T85426
PUBLIC	$T85415
PUBLIC	$T85427
PUBLIC	$T85413
PUBLIC	$T85414
PUBLIC	$T85428
PUBLIC	$T85412
PUBLIC	$T85429
PUBLIC	$T85411
PUBLIC	$T85409
PUBLIC	$T85410
PUBLIC	$T85430
PUBLIC	$T85408
PUBLIC	$T85431
PUBLIC	$T85407
PUBLIC	$T85432
PUBLIC	$T85405
PUBLIC	$T85406
PUBLIC	$T85433
PUBLIC	$T85404
PUBLIC	$T85434
PUBLIC	$T85402
PUBLIC	$T85403
PUBLIC	$T85435
PUBLIC	$T85401
PUBLIC	$T85399
PUBLIC	$T85400
PUBLIC	$T85436
PUBLIC	$T85398
PUBLIC	$T85437
PUBLIC	$T85396
PUBLIC	$T85397
PUBLIC	$T85438
PUBLIC	$T85395
PUBLIC	$T85439
PUBLIC	$T85393
PUBLIC	$T85394
PUBLIC	$T85440
PUBLIC	$T85391
PUBLIC	$T85392
PUBLIC	$T85441
PUBLIC	$T85390
PUBLIC	$T85442
PUBLIC	$T85388
PUBLIC	$T85389
PUBLIC	$T85443
PUBLIC	$T85386
PUBLIC	$T85387
PUBLIC	$T85444
PUBLIC	$T85384
PUBLIC	$T85385
PUBLIC	$T85445
PUBLIC	$T85383
PUBLIC	$T85446
PUBLIC	$T85447
PUBLIC	$T85448
PUBLIC	$T85449
PUBLIC	$T85382
PUBLIC	$T85450
PUBLIC	$T85380
PUBLIC	$T85381
PUBLIC	$T85451
PUBLIC	$T85452
PUBLIC	$T85453
PUBLIC	__real@4000000000000000
PUBLIC	__real@40000000
PUBLIC	__$ArrayPad$
PUBLIC	?do_raytrace_no_ocl@@YAHPEATcl_uchar4@@PEAUPrimitive@@HHHHMMMMM@Z ; do_raytrace_no_ocl
pdata	SEGMENT
$pdata$?do_raytrace_no_ocl@@YAHPEATcl_uchar4@@PEAUPrimitive@@HHHHMMMMM@Z DD imagerel $LN49
	DD	imagerel $LN49+7028
	DD	imagerel $unwind$?do_raytrace_no_ocl@@YAHPEATcl_uchar4@@PEAUPrimitive@@HHHHMMMMM@Z
pdata	ENDS
xdata	SEGMENT
$unwind$?do_raytrace_no_ocl@@YAHPEATcl_uchar4@@PEAUPrimitive@@HHHHMMMMM@Z DD 044619H
	DD	01ad011dH
	DD	060157016H
	DD	imagerel __GSHandlerCheck
	DD	0d58H
xdata	ENDS
;	COMDAT __real@437f0000
CONST	SEGMENT
__real@437f0000 DD 0437f0000r			; 255
CONST	ENDS
;	COMDAT __real@41e00000
CONST	SEGMENT
__real@41e00000 DD 041e00000r			; 28
CONST	ENDS
;	COMDAT __real@3e19999a
CONST	SEGMENT
__real@3e19999a DD 03e19999ar			; 0.15
CONST	ENDS
;	COMDAT __real@4000000000000000
CONST	SEGMENT
__real@4000000000000000 DQ 04000000000000000r	; 2
CONST	ENDS
;	COMDAT __real@40000000
CONST	SEGMENT
__real@40000000 DD 040000000r			; 2
	ORG $+288
?do_raytrace_no_ocl@@YAHPEATcl_uchar4@@PEAUPrimitive@@HHHHMMMMM@Z$rtcName$0 DB 063H ; do_raytrace_no_ocl
	DB	061H
	DB	06dH
	DB	065H
	DB	072H
	DB	061H
	DB	00H
	ORG $+1
?do_raytrace_no_ocl@@YAHPEATcl_uchar4@@PEAUPrimitive@@HHHHMMMMM@Z$rtcName$1 DB 061H ; do_raytrace_no_ocl
	DB	063H
	DB	063H
	DB	00H
?do_raytrace_no_ocl@@YAHPEATcl_uchar4@@PEAUPrimitive@@HHHHMMMMM@Z$rtcName$2 DB 064H ; do_raytrace_no_ocl
	DB	069H
	DB	072H
	DB	00H
?do_raytrace_no_ocl@@YAHPEATcl_uchar4@@PEAUPrimitive@@HHHHMMMMM@Z$rtcName$3 DB 072H ; do_raytrace_no_ocl
	DB	00H
	ORG $+2
?do_raytrace_no_ocl@@YAHPEATcl_uchar4@@PEAUPrimitive@@HHHHMMMMM@Z$rtcName$4 DB 064H ; do_raytrace_no_ocl
	DB	069H
	DB	073H
	DB	074H
	DB	00H
	ORG $+3
?do_raytrace_no_ocl@@YAHPEATcl_uchar4@@PEAUPrimitive@@HHHHMMMMM@Z$rtcName$8 DB 072H ; do_raytrace_no_ocl
	DB	065H
	DB	073H
	DB	075H
	DB	06cH
	DB	074H
	DB	00H
	ORG $+1
?do_raytrace_no_ocl@@YAHPEATcl_uchar4@@PEAUPrimitive@@HHHHMMMMM@Z$rtcName$9 DB 04eH ; do_raytrace_no_ocl
	DB	00H
	ORG $+2
?do_raytrace_no_ocl@@YAHPEATcl_uchar4@@PEAUPrimitive@@HHHHMMMMM@Z$rtcName$5 DB 063H ; do_raytrace_no_ocl
	DB	075H
	DB	072H
	DB	05fH
	DB	072H
	DB	061H
	DB	079H
	DB	00H
?do_raytrace_no_ocl@@YAHPEATcl_uchar4@@PEAUPrimitive@@HHHHMMMMM@Z$rtcName$6 DB 072H ; do_raytrace_no_ocl
	DB	061H
	DB	079H
	DB	05fH
	DB	063H
	DB	06fH
	DB	06cH
	DB	00H
?do_raytrace_no_ocl@@YAHPEATcl_uchar4@@PEAUPrimitive@@HHHHMMMMM@Z$rtcName$7 DB 070H ; do_raytrace_no_ocl
	DB	06fH
	DB	069H
	DB	06eH
	DB	074H
	DB	05fH
	DB	069H
	DB	06eH
	DB	074H
	DB	065H
	DB	072H
	DB	073H
	DB	065H
	DB	063H
	DB	074H
	DB	00H
?do_raytrace_no_ocl@@YAHPEATcl_uchar4@@PEAUPrimitive@@HHHHMMMMM@Z$rtcName$10 DB 052H ; do_raytrace_no_ocl
	DB	00H
	ORG $+2
?do_raytrace_no_ocl@@YAHPEATcl_uchar4@@PEAUPrimitive@@HHHHMMMMM@Z$rtcName$12 DB 04eH ; do_raytrace_no_ocl
	DB	00H
	ORG $+2
?do_raytrace_no_ocl@@YAHPEATcl_uchar4@@PEAUPrimitive@@HHHHMMMMM@Z$rtcName$11 DB 06eH ; do_raytrace_no_ocl
	DB	065H
	DB	077H
	DB	05fH
	DB	072H
	DB	061H
	DB	079H
	DB	00H
?do_raytrace_no_ocl@@YAHPEATcl_uchar4@@PEAUPrimitive@@HHHHMMMMM@Z$rtcName$13 DB 054H ; do_raytrace_no_ocl
	DB	00H
	ORG $+6
?do_raytrace_no_ocl@@YAHPEATcl_uchar4@@PEAUPrimitive@@HHHHMMMMM@Z$rtcName$14 DB 06eH ; do_raytrace_no_ocl
	DB	065H
	DB	077H
	DB	05fH
	DB	072H
	DB	061H
	DB	079H
	DB	00H
?do_raytrace_no_ocl@@YAHPEATcl_uchar4@@PEAUPrimitive@@HHHHMMMMM@Z$rtcName$15 DB 074H ; do_raytrace_no_ocl
	DB	065H
	DB	06dH
	DB	070H
	DB	00H
	ORG $+3
?do_raytrace_no_ocl@@YAHPEATcl_uchar4@@PEAUPrimitive@@HHHHMMMMM@Z$rtcVarDesc DD 0634H ; do_raytrace_no_ocl
	DD	04H
	DQ	FLAT:?do_raytrace_no_ocl@@YAHPEATcl_uchar4@@PEAUPrimitive@@HHHHMMMMM@Z$rtcName$15
	DD	0580H
	DD	044H
	DQ	FLAT:?do_raytrace_no_ocl@@YAHPEATcl_uchar4@@PEAUPrimitive@@HHHHMMMMM@Z$rtcName$14
	DD	0518H
	DD	010H
	DQ	FLAT:?do_raytrace_no_ocl@@YAHPEATcl_uchar4@@PEAUPrimitive@@HHHHMMMMM@Z$rtcName$13
	DD	04c8H
	DD	010H
	DQ	FLAT:?do_raytrace_no_ocl@@YAHPEATcl_uchar4@@PEAUPrimitive@@HHHHMMMMM@Z$rtcName$12
	DD	0430H
	DD	044H
	DQ	FLAT:?do_raytrace_no_ocl@@YAHPEATcl_uchar4@@PEAUPrimitive@@HHHHMMMMM@Z$rtcName$11
	DD	03d8H
	DD	010H
	DQ	FLAT:?do_raytrace_no_ocl@@YAHPEATcl_uchar4@@PEAUPrimitive@@HHHHMMMMM@Z$rtcName$10
	DD	0398H
	DD	010H
	DQ	FLAT:?do_raytrace_no_ocl@@YAHPEATcl_uchar4@@PEAUPrimitive@@HHHHMMMMM@Z$rtcName$9
	DD	02e4H
	DD	04H
	DQ	FLAT:?do_raytrace_no_ocl@@YAHPEATcl_uchar4@@PEAUPrimitive@@HHHHMMMMM@Z$rtcName$8
	DD	02b8H
	DD	010H
	DQ	FLAT:?do_raytrace_no_ocl@@YAHPEATcl_uchar4@@PEAUPrimitive@@HHHHMMMMM@Z$rtcName$7
	DD	0278H
	DD	010H
	DQ	FLAT:?do_raytrace_no_ocl@@YAHPEATcl_uchar4@@PEAUPrimitive@@HHHHMMMMM@Z$rtcName$6
	DD	0210H
	DD	044H
	DQ	FLAT:?do_raytrace_no_ocl@@YAHPEATcl_uchar4@@PEAUPrimitive@@HHHHMMMMM@Z$rtcName$5
	DD	01e4H
	DD	04H
	DQ	FLAT:?do_raytrace_no_ocl@@YAHPEATcl_uchar4@@PEAUPrimitive@@HHHHMMMMM@Z$rtcName$4
	DD	0170H
	DD	044H
	DQ	FLAT:?do_raytrace_no_ocl@@YAHPEATcl_uchar4@@PEAUPrimitive@@HHHHMMMMM@Z$rtcName$3
	DD	0108H
	DD	010H
	DQ	FLAT:?do_raytrace_no_ocl@@YAHPEATcl_uchar4@@PEAUPrimitive@@HHHHMMMMM@Z$rtcName$2
	DD	0c8H
	DD	010H
	DQ	FLAT:?do_raytrace_no_ocl@@YAHPEATcl_uchar4@@PEAUPrimitive@@HHHHMMMMM@Z$rtcName$1
	DD	088H
	DD	010H
	DQ	FLAT:?do_raytrace_no_ocl@@YAHPEATcl_uchar4@@PEAUPrimitive@@HHHHMMMMM@Z$rtcName$0
	ORG $+768
?do_raytrace_no_ocl@@YAHPEATcl_uchar4@@PEAUPrimitive@@HHHHMMMMM@Z$rtcFrameData DD 010H ; do_raytrace_no_ocl
	DD	00H
	DQ	FLAT:?do_raytrace_no_ocl@@YAHPEATcl_uchar4@@PEAUPrimitive@@HHHHMMMMM@Z$rtcVarDesc
; Function compile flags: /Odtp /RTCsu
_TEXT	SEGMENT
fstart$ = 64
dx$ = 72
dy$ = 76
y$7230 = 80
x$7234 = 84
sx$7238 = 88
sy$7239 = 92
max_ray_count$7240 = 96
queue$7242 = 104
rays_in_queue$7248 = 112
front_ray_ptr$7249 = 116
back_ray_ptr$7250 = 120
camera$7251 = 136
$T7252 = 168
acc$7253 = 200
$T7254 = 232
tx$7255 = 248
ty$7259 = 252
dir$7263 = 264
$T7264 = 296
$T7265 = 312
$T7266 = 328
r$7267 = 368
$T7268 = 456
dist$7273 = 484
cur_ray$7274 = 528
ray_col$7276 = 632
$T7277 = 664
point_intersect$7278 = 696
result$7279 = 740
prim_index$7280 = 756
$T7286 = 760
$T7287 = 776
$T7289 = 792
$T7290 = 808
$T7291 = 824
$T7292 = 840
$T7294 = 856
$T7295 = 872
$T7296 = 888
refl$7298 = 904
N$7300 = 920
$T7301 = 952
R$7302 = 984
$T7303 = 1016
$T7304 = 1032
new_ray$7305 = 1072
$T7306 = 1160
$T7307 = 1176
refr$7309 = 1192
m_rindex$7311 = 1196
n$7312 = 1200
N$7313 = 1224
$T7314 = 1256
$T7316 = 1272
cosI$7317 = 1288
cosT2$7318 = 1292
T$7320 = 1304
$T7321 = 1336
$T7322 = 1352
$T7323 = 1368
new_ray$7324 = 1408
$T7325 = 1496
$T7326 = 1512
$T7327 = 1528
$T7328 = 1544
$T7329 = 1560
temp$7331 = 1588
fend$ = 1608
$T85331 = 1624
$T85332 = 1640
$T85333 = 1656
$T85334 = 1672
$T85335 = 1688
$T85336 = 1704
$T85337 = 1720
$T85338 = 1736
$T85339 = 1752
$T85340 = 1768
$T85341 = 1784
$T85342 = 1800
$T85343 = 1816
$T85344 = 1832
$T85345 = 1848
$T85346 = 1864
$T85347 = 1880
$T85348 = 1896
$T85349 = 1912
$T85350 = 1928
$T85351 = 1944
$T85352 = 1960
$T85353 = 1976
$T85354 = 1992
$T85355 = 2008
$T85356 = 2024
$T85357 = 2040
$T85358 = 2056
$T85359 = 2072
$T85360 = 2088
$T85361 = 2104
$T85380 = 2128
$T85381 = 2144
$T85382 = 2160
$T85383 = 2176
$T85384 = 2192
$T85385 = 2208
$T85386 = 2224
$T85387 = 2240
$T85388 = 2256
$T85389 = 2272
$T85390 = 2288
$T85391 = 2304
$T85392 = 2320
$T85393 = 2336
$T85394 = 2352
$T85395 = 2368
$T85396 = 2384
$T85397 = 2400
$T85398 = 2416
$T85399 = 2432
$T85400 = 2448
$T85401 = 2464
$T85402 = 2480
$T85403 = 2496
$T85404 = 2512
$T85405 = 2528
$T85406 = 2544
$T85407 = 2560
$T85408 = 2576
$T85409 = 2592
$T85410 = 2608
$T85411 = 2624
$T85412 = 2640
$T85413 = 2656
$T85414 = 2672
$T85415 = 2688
$T85416 = 2704
$T85417 = 2720
$T85418 = 2736
$T85419 = 2752
$T85420 = 2768
$T85421 = 2784
$T85422 = 2800
$T85423 = 2816
$T85424 = 2832
$T85425 = 2848
$T85426 = 2864
$T85427 = 2880
$T85428 = 2896
$T85429 = 2912
$T85430 = 2928
$T85431 = 2944
$T85432 = 2960
$T85433 = 2976
$T85434 = 2992
$T85435 = 3008
$T85436 = 3024
$T85437 = 3040
$T85438 = 3056
$T85439 = 3072
$T85440 = 3088
$T85441 = 3104
$T85442 = 3120
$T85443 = 3136
$T85444 = 3152
$T85445 = 3168
$T85446 = 3184
$T85447 = 3200
$T85448 = 3272
$T85449 = 3288
$T85450 = 3304
$T85451 = 3320
$T85452 = 3336
$T85453 = 3352
tv251 = 3368
tv575 = 3372
tv582 = 3376
tv583 = 3380
tv593 = 3384
tv602 = 3388
tv603 = 3392
tv613 = 3396
tv622 = 3400
tv623 = 3404
tv638 = 3408
__$ArrayPad$ = 3416
out_pixels$ = 3456
prim_list$ = 3464
n_primitives$ = 3472
depth$ = 3480
image_width$ = 3488
image_height$ = 3496
camera_x$ = 3504
camera_y$ = 3512
camera_z$ = 3520
viewport_width$ = 3528
viewport_height$ = 3536
?do_raytrace_no_ocl@@YAHPEATcl_uchar4@@PEAUPrimitive@@HHHHMMMMM@Z PROC ; do_raytrace_no_ocl
; Line 275
$LN49:
	mov	DWORD PTR [rsp+32], r9d
	mov	DWORD PTR [rsp+24], r8d
	mov	QWORD PTR [rsp+16], rdx
	mov	QWORD PTR [rsp+8], rcx
	push	rsi
	push	rdi
	sub	rsp, 3432				; 00000d68H
	mov	rdi, rsp
	mov	ecx, 858				; 0000035aH
	mov	eax, -858993460				; ccccccccH
	rep stosd
	mov	rcx, QWORD PTR [rsp+3456]
	mov	rax, QWORD PTR __security_cookie
	xor	rax, rsp
	mov	QWORD PTR __$ArrayPad$[rsp], rax
; Line 276
	call	QWORD PTR __imp___iob_func
	add	rax, 96					; 00000060H
	lea	rdx, OFFSET FLAT:$SG-417
	mov	rcx, rax
	call	QWORD PTR __imp_fprintf
; Line 277
	call	?get_time@@YANXZ			; get_time
	movsdx	QWORD PTR fstart$[rsp], xmm0
; Line 282
	movd	xmm0, DWORD PTR image_width$[rsp]
	cvtdq2ps xmm0, xmm0
	movss	xmm1, DWORD PTR viewport_width$[rsp]
	divss	xmm1, xmm0
	movaps	xmm0, xmm1
	movss	DWORD PTR dx$[rsp], xmm0
; Line 283
	movss	xmm0, DWORD PTR viewport_height$[rsp]
	xorps	xmm0, DWORD PTR __mask@@NegFloat@
	movd	xmm1, DWORD PTR image_height$[rsp]
	cvtdq2ps xmm1, xmm1
	divss	xmm0, xmm1
	movss	DWORD PTR dy$[rsp], xmm0
; Line 285
	mov	DWORD PTR y$7230[rsp], 0
	jmp	SHORT $LN28@do_raytrac@2
$LN27@do_raytrac@2:
	mov	eax, DWORD PTR y$7230[rsp]
	inc	eax
	mov	DWORD PTR y$7230[rsp], eax
$LN28@do_raytrac@2:
	mov	eax, DWORD PTR image_height$[rsp]
	cmp	DWORD PTR y$7230[rsp], eax
	jge	$LN26@do_raytrac@2
; Line 287
	mov	DWORD PTR x$7234[rsp], 0
	jmp	SHORT $LN25@do_raytrac@2
$LN24@do_raytrac@2:
	mov	eax, DWORD PTR x$7234[rsp]
	inc	eax
	mov	DWORD PTR x$7234[rsp], eax
$LN25@do_raytrac@2:
	mov	eax, DWORD PTR image_width$[rsp]
	cmp	DWORD PTR x$7234[rsp], eax
	jge	$LN23@do_raytrac@2
; Line 289
	movss	xmm0, DWORD PTR viewport_width$[rsp]
	divss	xmm0, DWORD PTR __real@40000000
	xorps	xmm0, DWORD PTR __mask@@NegFloat@
	movd	xmm1, DWORD PTR x$7234[rsp]
	cvtdq2ps xmm1, xmm1
	mulss	xmm1, DWORD PTR dx$[rsp]
	addss	xmm0, xmm1
	movss	DWORD PTR sx$7238[rsp], xmm0
; Line 290
	movss	xmm0, DWORD PTR viewport_height$[rsp]
	divss	xmm0, DWORD PTR __real@40000000
	movd	xmm1, DWORD PTR y$7230[rsp]
	cvtdq2ps xmm1, xmm1
	mulss	xmm1, DWORD PTR dy$[rsp]
	addss	xmm0, xmm1
	movss	DWORD PTR sy$7239[rsp], xmm0
; Line 297
	mov	edx, DWORD PTR depth$[rsp]
	movsdx	xmm0, QWORD PTR __real@4000000000000000
	call	?pow@@YANNH@Z				; pow
	cvttsd2si eax, xmm0
	mov	DWORD PTR max_ray_count$7240[rsp], eax
; Line 301
	movsxd	rax, DWORD PTR max_ray_count$7240[rsp]
	imul	rax, 68					; 00000044H
	mov	rcx, rax
	call	QWORD PTR __imp_malloc
	mov	QWORD PTR queue$7242[rsp], rax
; Line 303
	cmp	QWORD PTR queue$7242[rsp], 0
	jne	SHORT $LN22@do_raytrac@2
; Line 305
	call	QWORD PTR __imp___iob_func
	add	rax, 96					; 00000060H
	lea	rdx, OFFSET FLAT:$SG-418
	mov	rcx, rax
	call	QWORD PTR __imp_fprintf
; Line 306
	xor	eax, eax
	jmp	$LN29@do_raytrac@2
$LN22@do_raytrac@2:
; Line 309
	movsxd	rax, DWORD PTR max_ray_count$7240[rsp]
	imul	rax, 68					; 00000044H
	mov	r8, rax
	xor	edx, edx
	mov	rcx, QWORD PTR queue$7242[rsp]
	call	QWORD PTR __imp_memset
; Line 310
	mov	DWORD PTR rays_in_queue$7248[rsp], 0
; Line 311
	mov	DWORD PTR front_ray_ptr$7249[rsp], 0
; Line 312
	mov	DWORD PTR back_ray_ptr$7250[rsp], 0
; Line 314
	xorps	xmm0, xmm0
	movss	DWORD PTR [rsp+32], xmm0
	movss	xmm3, DWORD PTR camera_z$[rsp]
	movss	xmm2, DWORD PTR camera_y$[rsp]
	movss	xmm1, DWORD PTR camera_x$[rsp]
	lea	rcx, QWORD PTR $T85331[rsp]
	call	?create_float4@@YA?ATcl_float4@@MMMM@Z	; create_float4
	lea	rcx, QWORD PTR $T85453[rsp]
	mov	rdi, rcx
	mov	rsi, rax
	mov	ecx, 16
	rep movsb
	lea	rax, QWORD PTR $T7252[rsp]
	lea	rcx, QWORD PTR $T85453[rsp]
	mov	rdi, rax
	mov	rsi, rcx
	mov	ecx, 16
	rep movsb
	lea	rax, QWORD PTR camera$7251[rsp]
	lea	rcx, QWORD PTR $T7252[rsp]
	mov	rdi, rax
	mov	rsi, rcx
	mov	ecx, 16
	rep movsb
; Line 315
	xorps	xmm0, xmm0
	movss	DWORD PTR [rsp+32], xmm0
	xorps	xmm3, xmm3
	xorps	xmm2, xmm2
	xorps	xmm1, xmm1
	lea	rcx, QWORD PTR $T85332[rsp]
	call	?create_float4@@YA?ATcl_float4@@MMMM@Z	; create_float4
	lea	rcx, QWORD PTR $T85452[rsp]
	mov	rdi, rcx
	mov	rsi, rax
	mov	ecx, 16
	rep movsb
	lea	rax, QWORD PTR $T7254[rsp]
	lea	rcx, QWORD PTR $T85452[rsp]
	mov	rdi, rax
	mov	rsi, rcx
	mov	ecx, 16
	rep movsb
	lea	rax, QWORD PTR acc$7253[rsp]
	lea	rcx, QWORD PTR $T7254[rsp]
	mov	rdi, rax
	mov	rsi, rcx
	mov	ecx, 16
	rep movsb
; Line 319
	mov	DWORD PTR tx$7255[rsp], -1
	jmp	SHORT $LN21@do_raytrac@2
$LN20@do_raytrac@2:
	mov	eax, DWORD PTR tx$7255[rsp]
	inc	eax
	mov	DWORD PTR tx$7255[rsp], eax
$LN21@do_raytrac@2:
	cmp	DWORD PTR tx$7255[rsp], 2
	jge	$LN19@do_raytrac@2
; Line 321
	mov	DWORD PTR ty$7259[rsp], -1
	jmp	SHORT $LN18@do_raytrac@2
$LN17@do_raytrac@2:
	mov	eax, DWORD PTR ty$7259[rsp]
	inc	eax
	mov	DWORD PTR ty$7259[rsp], eax
$LN18@do_raytrac@2:
	cmp	DWORD PTR ty$7259[rsp], 2
	jge	$LN16@do_raytrac@2
; Line 324
	movd	xmm0, DWORD PTR ty$7259[rsp]
	cvtdq2ps xmm0, xmm0
	divss	xmm0, DWORD PTR __real@40000000
	movss	xmm1, DWORD PTR dy$[rsp]
	mulss	xmm1, xmm0
	movaps	xmm0, xmm1
	movss	xmm1, DWORD PTR sy$7239[rsp]
	addss	xmm1, xmm0
	movaps	xmm0, xmm1
	movd	xmm1, DWORD PTR tx$7255[rsp]
	cvtdq2ps xmm1, xmm1
	divss	xmm1, DWORD PTR __real@40000000
	movss	xmm2, DWORD PTR dx$[rsp]
	mulss	xmm2, xmm1
	movaps	xmm1, xmm2
	movss	xmm2, DWORD PTR sx$7238[rsp]
	addss	xmm2, xmm1
	movaps	xmm1, xmm2
	xorps	xmm2, xmm2
	movss	DWORD PTR [rsp+32], xmm2
	xorps	xmm3, xmm3
	movaps	xmm2, xmm0
	lea	rcx, QWORD PTR $T85333[rsp]
	call	?create_float4@@YA?ATcl_float4@@MMMM@Z	; create_float4
	lea	rcx, QWORD PTR $T85451[rsp]
	mov	rdi, rcx
	mov	rsi, rax
	mov	ecx, 16
	rep movsb
	lea	rax, QWORD PTR $T7264[rsp]
	lea	rcx, QWORD PTR $T85451[rsp]
	mov	rdi, rax
	mov	rsi, rcx
	mov	ecx, 16
	rep movsb
	lea	rax, QWORD PTR $T85381[rsp]
	lea	rcx, QWORD PTR camera$7251[rsp]
	mov	rdi, rax
	mov	rsi, rcx
	mov	ecx, 16
	rep movsb
	lea	rax, QWORD PTR $T85380[rsp]
	lea	rcx, QWORD PTR $T7264[rsp]
	mov	rdi, rax
	mov	rsi, rcx
	mov	ecx, 16
	rep movsb
	lea	r8, QWORD PTR $T85381[rsp]
	lea	rdx, QWORD PTR $T85380[rsp]
	lea	rcx, QWORD PTR $T85334[rsp]
	call	?vector_sub@@YA?ATcl_float4@@T1@0@Z	; vector_sub
	lea	rcx, QWORD PTR $T85450[rsp]
	mov	rdi, rcx
	mov	rsi, rax
	mov	ecx, 16
	rep movsb
	lea	rax, QWORD PTR $T7265[rsp]
	lea	rcx, QWORD PTR $T85450[rsp]
	mov	rdi, rax
	mov	rsi, rcx
	mov	ecx, 16
	rep movsb
	lea	rax, QWORD PTR $T85382[rsp]
	lea	rcx, QWORD PTR $T7265[rsp]
	mov	rdi, rax
	mov	rsi, rcx
	mov	ecx, 16
	rep movsb
	lea	rdx, QWORD PTR $T85382[rsp]
	lea	rcx, QWORD PTR $T85335[rsp]
	call	?soft_normalize@@YA?ATcl_float4@@T1@@Z	; soft_normalize
	lea	rcx, QWORD PTR $T85449[rsp]
	mov	rdi, rcx
	mov	rsi, rax
	mov	ecx, 16
	rep movsb
	lea	rax, QWORD PTR $T7266[rsp]
	lea	rcx, QWORD PTR $T85449[rsp]
	mov	rdi, rax
	mov	rsi, rcx
	mov	ecx, 16
	rep movsb
	lea	rax, QWORD PTR dir$7263[rsp]
	lea	rcx, QWORD PTR $T7266[rsp]
	mov	rdi, rax
	mov	rsi, rcx
	mov	ecx, 16
	rep movsb
; Line 326
	lea	rax, QWORD PTR r$7267[rsp]
	lea	rcx, QWORD PTR camera$7251[rsp]
	mov	rdi, rax
	mov	rsi, rcx
	mov	ecx, 16
	rep movsb
; Line 327
	lea	rax, QWORD PTR r$7267[rsp+16]
	lea	rcx, QWORD PTR dir$7263[rsp]
	mov	rdi, rax
	mov	rsi, rcx
	mov	ecx, 16
	rep movsb
; Line 328
	movss	xmm0, DWORD PTR __real@3f800000
	movss	DWORD PTR r$7267[rsp+32], xmm0
; Line 329
	xorps	xmm0, xmm0
	movss	DWORD PTR r$7267[rsp+36], xmm0
; Line 330
	mov	DWORD PTR r$7267[rsp+40], -1
; Line 331
	mov	DWORD PTR r$7267[rsp+44], 0
; Line 332
	movss	xmm0, DWORD PTR __real@3f800000
	movss	DWORD PTR r$7267[rsp+48], xmm0
; Line 333
	xorps	xmm0, xmm0
	movss	DWORD PTR [rsp+32], xmm0
	movss	xmm3, DWORD PTR __real@3f800000
	movss	xmm2, DWORD PTR __real@3f800000
	movss	xmm1, DWORD PTR __real@3f800000
	lea	rcx, QWORD PTR $T85336[rsp]
	call	?create_float4@@YA?ATcl_float4@@MMMM@Z	; create_float4
	lea	rcx, QWORD PTR $T85448[rsp]
	mov	rdi, rcx
	mov	rsi, rax
	mov	ecx, 16
	rep movsb
	lea	rax, QWORD PTR $T7268[rsp]
	lea	rcx, QWORD PTR $T85448[rsp]
	mov	rdi, rax
	mov	rsi, rcx
	mov	ecx, 16
	rep movsb
	lea	rax, QWORD PTR r$7267[rsp+52]
	lea	rcx, QWORD PTR $T7268[rsp]
	mov	rdi, rax
	mov	rsi, rcx
	mov	ecx, 16
	rep movsb
; Line 336
	mov	eax, DWORD PTR max_ray_count$7240[rsp]
	cmp	DWORD PTR back_ray_ptr$7250[rsp], eax
	jl	SHORT $LN15@do_raytrac@2
	mov	DWORD PTR back_ray_ptr$7250[rsp], 0
$LN15@do_raytrac@2:
	movsxd	rax, DWORD PTR back_ray_ptr$7250[rsp]
	imul	rax, 68					; 00000044H
	mov	rcx, QWORD PTR queue$7242[rsp]
	lea	rdx, QWORD PTR r$7267[rsp]
	lea	rdi, QWORD PTR [rcx+rax]
	mov	rsi, rdx
	mov	ecx, 68					; 00000044H
	rep movsb
	mov	eax, DWORD PTR back_ray_ptr$7250[rsp]
	inc	eax
	mov	DWORD PTR back_ray_ptr$7250[rsp], eax
	mov	eax, DWORD PTR rays_in_queue$7248[rsp]
	inc	eax
	mov	DWORD PTR rays_in_queue$7248[rsp], eax
$LN14@do_raytrac@2:
; Line 338
	cmp	DWORD PTR rays_in_queue$7248[rsp], 0
	jle	$LN13@do_raytrac@2
; Line 342
	mov	eax, DWORD PTR max_ray_count$7240[rsp]
	cmp	DWORD PTR front_ray_ptr$7249[rsp], eax
	jl	SHORT $LN12@do_raytrac@2
	mov	DWORD PTR front_ray_ptr$7249[rsp], 0
$LN12@do_raytrac@2:
	movsxd	rax, DWORD PTR front_ray_ptr$7249[rsp]
	imul	rax, 68					; 00000044H
	lea	rcx, QWORD PTR $T85447[rsp]
	mov	rdx, QWORD PTR queue$7242[rsp]
	mov	rdi, rcx
	lea	rsi, QWORD PTR [rdx+rax]
	mov	ecx, 68					; 00000044H
	rep movsb
	lea	rax, QWORD PTR cur_ray$7274[rsp]
	lea	rcx, QWORD PTR $T85447[rsp]
	mov	rdi, rax
	mov	rsi, rcx
	mov	ecx, 68					; 00000044H
	rep movsb
	mov	eax, DWORD PTR front_ray_ptr$7249[rsp]
	inc	eax
	mov	DWORD PTR front_ray_ptr$7249[rsp], eax
	mov	eax, DWORD PTR rays_in_queue$7248[rsp]
	dec	eax
	mov	DWORD PTR rays_in_queue$7248[rsp], eax
; Line 343
	xorps	xmm0, xmm0
	movss	DWORD PTR [rsp+32], xmm0
	xorps	xmm3, xmm3
	xorps	xmm2, xmm2
	xorps	xmm1, xmm1
	lea	rcx, QWORD PTR $T85337[rsp]
	call	?create_float4@@YA?ATcl_float4@@MMMM@Z	; create_float4
	lea	rcx, QWORD PTR $T85446[rsp]
	mov	rdi, rcx
	mov	rsi, rax
	mov	ecx, 16
	rep movsb
	lea	rax, QWORD PTR $T7277[rsp]
	lea	rcx, QWORD PTR $T85446[rsp]
	mov	rdi, rax
	mov	rsi, rcx
	mov	ecx, 16
	rep movsb
	lea	rax, QWORD PTR ray_col$7276[rsp]
	lea	rcx, QWORD PTR $T7277[rsp]
	mov	rdi, rax
	mov	rsi, rcx
	mov	ecx, 16
	rep movsb
; Line 347
	mov	eax, DWORD PTR n_primitives$[rsp]
	mov	DWORD PTR [rsp+48], eax
	mov	rax, QWORD PTR prim_list$[rsp]
	mov	QWORD PTR [rsp+40], rax
	lea	rax, QWORD PTR result$7279[rsp]
	mov	QWORD PTR [rsp+32], rax
	lea	r9, QWORD PTR point_intersect$7278[rsp]
	lea	r8, QWORD PTR dist$7273[rsp]
	lea	rdx, QWORD PTR ray_col$7276[rsp]
	lea	rcx, QWORD PTR cur_ray$7274[rsp]
	call	?raytrace@@YAHPEAURay@@PEATcl_float4@@PEAM1PEAHPEAUPrimitive@@H@Z ; raytrace
	mov	DWORD PTR prim_index$7280[rsp], eax
; Line 349
	mov	eax, DWORD PTR cur_ray$7274[rsp+44]
	mov	DWORD PTR tv251[rsp], eax
	cmp	DWORD PTR tv251[rsp], 0
	je	SHORT $LN9@do_raytrac@2
	cmp	DWORD PTR tv251[rsp], 1
	je	$LN8@do_raytrac@2
	cmp	DWORD PTR tv251[rsp], 2
	je	$LN7@do_raytrac@2
	jmp	$LN10@do_raytrac@2
$LN9@do_raytrac@2:
; Line 352
	lea	rax, QWORD PTR $T85383[rsp]
	lea	rcx, QWORD PTR ray_col$7276[rsp]
	mov	rdi, rax
	mov	rsi, rcx
	mov	ecx, 16
	rep movsb
	movss	xmm2, DWORD PTR cur_ray$7274[rsp+32]
	lea	rdx, QWORD PTR $T85383[rsp]
	lea	rcx, QWORD PTR $T85338[rsp]
	call	?vector_scalar_mul@@YA?ATcl_float4@@T1@M@Z ; vector_scalar_mul
	lea	rcx, QWORD PTR $T85445[rsp]
	mov	rdi, rcx
	mov	rsi, rax
	mov	ecx, 16
	rep movsb
	lea	rax, QWORD PTR $T7286[rsp]
	lea	rcx, QWORD PTR $T85445[rsp]
	mov	rdi, rax
	mov	rsi, rcx
	mov	ecx, 16
	rep movsb
	lea	rax, QWORD PTR $T85385[rsp]
	lea	rcx, QWORD PTR $T7286[rsp]
	mov	rdi, rax
	mov	rsi, rcx
	mov	ecx, 16
	rep movsb
	lea	rax, QWORD PTR $T85384[rsp]
	lea	rcx, QWORD PTR acc$7253[rsp]
	mov	rdi, rax
	mov	rsi, rcx
	mov	ecx, 16
	rep movsb
	lea	r8, QWORD PTR $T85385[rsp]
	lea	rdx, QWORD PTR $T85384[rsp]
	lea	rcx, QWORD PTR $T85339[rsp]
	call	?vector_add@@YA?ATcl_float4@@T1@0@Z	; vector_add
	lea	rcx, QWORD PTR $T85444[rsp]
	mov	rdi, rcx
	mov	rsi, rax
	mov	ecx, 16
	rep movsb
	lea	rax, QWORD PTR $T7287[rsp]
	lea	rcx, QWORD PTR $T85444[rsp]
	mov	rdi, rax
	mov	rsi, rcx
	mov	ecx, 16
	rep movsb
	lea	rax, QWORD PTR acc$7253[rsp]
	lea	rcx, QWORD PTR $T7287[rsp]
	mov	rdi, rax
	mov	rsi, rcx
	mov	ecx, 16
	rep movsb
; Line 353
	jmp	$LN10@do_raytrac@2
$LN8@do_raytrac@2:
; Line 358
	movsxd	rax, DWORD PTR cur_ray$7274[rsp+40]
	imul	rax, 96					; 00000060H
	lea	rcx, QWORD PTR $T85387[rsp]
	mov	rdx, QWORD PTR prim_list$[rsp]
	mov	rdi, rcx
	lea	rsi, QWORD PTR [rdx+rax]
	mov	ecx, 16
	rep movsb
	lea	rax, QWORD PTR $T85386[rsp]
	lea	rcx, QWORD PTR ray_col$7276[rsp]
	mov	rdi, rax
	mov	rsi, rcx
	mov	ecx, 16
	rep movsb
	lea	r8, QWORD PTR $T85387[rsp]
	lea	rdx, QWORD PTR $T85386[rsp]
	lea	rcx, QWORD PTR $T85340[rsp]
	call	?vector_mul@@YA?ATcl_float4@@T1@0@Z	; vector_mul
	lea	rcx, QWORD PTR $T85443[rsp]
	mov	rdi, rcx
	mov	rsi, rax
	mov	ecx, 16
	rep movsb
	lea	rax, QWORD PTR $T7289[rsp]
	lea	rcx, QWORD PTR $T85443[rsp]
	mov	rdi, rax
	mov	rsi, rcx
	mov	ecx, 16
	rep movsb
	lea	rax, QWORD PTR $T85389[rsp]
	lea	rcx, QWORD PTR cur_ray$7274[rsp+52]
	mov	rdi, rax
	mov	rsi, rcx
	mov	ecx, 16
	rep movsb
	lea	rax, QWORD PTR $T85388[rsp]
	lea	rcx, QWORD PTR $T7289[rsp]
	mov	rdi, rax
	mov	rsi, rcx
	mov	ecx, 16
	rep movsb
	lea	r8, QWORD PTR $T85389[rsp]
	lea	rdx, QWORD PTR $T85388[rsp]
	lea	rcx, QWORD PTR $T85341[rsp]
	call	?vector_mul@@YA?ATcl_float4@@T1@0@Z	; vector_mul
	lea	rcx, QWORD PTR $T85442[rsp]
	mov	rdi, rcx
	mov	rsi, rax
	mov	ecx, 16
	rep movsb
	lea	rax, QWORD PTR $T7290[rsp]
	lea	rcx, QWORD PTR $T85442[rsp]
	mov	rdi, rax
	mov	rsi, rcx
	mov	ecx, 16
	rep movsb
	lea	rax, QWORD PTR $T85390[rsp]
	lea	rcx, QWORD PTR $T7290[rsp]
	mov	rdi, rax
	mov	rsi, rcx
	mov	ecx, 16
	rep movsb
	movss	xmm2, DWORD PTR cur_ray$7274[rsp+32]
	lea	rdx, QWORD PTR $T85390[rsp]
	lea	rcx, QWORD PTR $T85342[rsp]
	call	?vector_scalar_mul@@YA?ATcl_float4@@T1@M@Z ; vector_scalar_mul
	lea	rcx, QWORD PTR $T85441[rsp]
	mov	rdi, rcx
	mov	rsi, rax
	mov	ecx, 16
	rep movsb
	lea	rax, QWORD PTR $T7291[rsp]
	lea	rcx, QWORD PTR $T85441[rsp]
	mov	rdi, rax
	mov	rsi, rcx
	mov	ecx, 16
	rep movsb
	lea	rax, QWORD PTR $T85392[rsp]
	lea	rcx, QWORD PTR $T7291[rsp]
	mov	rdi, rax
	mov	rsi, rcx
	mov	ecx, 16
	rep movsb
	lea	rax, QWORD PTR $T85391[rsp]
	lea	rcx, QWORD PTR acc$7253[rsp]
	mov	rdi, rax
	mov	rsi, rcx
	mov	ecx, 16
	rep movsb
	lea	r8, QWORD PTR $T85392[rsp]
	lea	rdx, QWORD PTR $T85391[rsp]
	lea	rcx, QWORD PTR $T85343[rsp]
	call	?vector_add@@YA?ATcl_float4@@T1@0@Z	; vector_add
	lea	rcx, QWORD PTR $T85440[rsp]
	mov	rdi, rcx
	mov	rsi, rax
	mov	ecx, 16
	rep movsb
	lea	rax, QWORD PTR $T7292[rsp]
	lea	rcx, QWORD PTR $T85440[rsp]
	mov	rdi, rax
	mov	rsi, rcx
	mov	ecx, 16
	rep movsb
	lea	rax, QWORD PTR acc$7253[rsp]
	lea	rcx, QWORD PTR $T7292[rsp]
	mov	rdi, rax
	mov	rsi, rcx
	mov	ecx, 16
	rep movsb
; Line 359
	jmp	$LN10@do_raytrac@2
$LN7@do_raytrac@2:
; Line 361
	lea	rax, QWORD PTR $T85394[rsp]
	lea	rcx, QWORD PTR cur_ray$7274[rsp+52]
	mov	rdi, rax
	mov	rsi, rcx
	mov	ecx, 16
	rep movsb
	lea	rax, QWORD PTR $T85393[rsp]
	lea	rcx, QWORD PTR ray_col$7276[rsp]
	mov	rdi, rax
	mov	rsi, rcx
	mov	ecx, 16
	rep movsb
	lea	r8, QWORD PTR $T85394[rsp]
	lea	rdx, QWORD PTR $T85393[rsp]
	lea	rcx, QWORD PTR $T85344[rsp]
	call	?vector_mul@@YA?ATcl_float4@@T1@0@Z	; vector_mul
	lea	rcx, QWORD PTR $T85439[rsp]
	mov	rdi, rcx
	mov	rsi, rax
	mov	ecx, 16
	rep movsb
	lea	rax, QWORD PTR $T7294[rsp]
	lea	rcx, QWORD PTR $T85439[rsp]
	mov	rdi, rax
	mov	rsi, rcx
	mov	ecx, 16
	rep movsb
	lea	rax, QWORD PTR $T85395[rsp]
	lea	rcx, QWORD PTR $T7294[rsp]
	mov	rdi, rax
	mov	rsi, rcx
	mov	ecx, 16
	rep movsb
	movss	xmm2, DWORD PTR cur_ray$7274[rsp+32]
	lea	rdx, QWORD PTR $T85395[rsp]
	lea	rcx, QWORD PTR $T85345[rsp]
	call	?vector_scalar_mul@@YA?ATcl_float4@@T1@M@Z ; vector_scalar_mul
	lea	rcx, QWORD PTR $T85438[rsp]
	mov	rdi, rcx
	mov	rsi, rax
	mov	ecx, 16
	rep movsb
	lea	rax, QWORD PTR $T7295[rsp]
	lea	rcx, QWORD PTR $T85438[rsp]
	mov	rdi, rax
	mov	rsi, rcx
	mov	ecx, 16
	rep movsb
	lea	rax, QWORD PTR $T85397[rsp]
	lea	rcx, QWORD PTR $T7295[rsp]
	mov	rdi, rax
	mov	rsi, rcx
	mov	ecx, 16
	rep movsb
	lea	rax, QWORD PTR $T85396[rsp]
	lea	rcx, QWORD PTR acc$7253[rsp]
	mov	rdi, rax
	mov	rsi, rcx
	mov	ecx, 16
	rep movsb
	lea	r8, QWORD PTR $T85397[rsp]
	lea	rdx, QWORD PTR $T85396[rsp]
	lea	rcx, QWORD PTR $T85346[rsp]
	call	?vector_add@@YA?ATcl_float4@@T1@0@Z	; vector_add
	lea	rcx, QWORD PTR $T85437[rsp]
	mov	rdi, rcx
	mov	rsi, rax
	mov	ecx, 16
	rep movsb
	lea	rax, QWORD PTR $T7296[rsp]
	lea	rcx, QWORD PTR $T85437[rsp]
	mov	rdi, rax
	mov	rsi, rcx
	mov	ecx, 16
	rep movsb
	lea	rax, QWORD PTR acc$7253[rsp]
	lea	rcx, QWORD PTR $T7296[rsp]
	mov	rdi, rax
	mov	rsi, rcx
	mov	ecx, 16
	rep movsb
$LN10@do_raytrac@2:
; Line 365
	movd	xmm0, DWORD PTR depth$[rsp]
	cvtdq2ps xmm0, xmm0
	comiss	xmm0, DWORD PTR cur_ray$7274[rsp+36]
	jbe	$LN6@do_raytrac@2
; Line 368
	movsxd	rax, DWORD PTR prim_index$7280[rsp]
	imul	rax, 96					; 00000060H
	mov	rcx, QWORD PTR prim_list$[rsp]
	movss	xmm0, DWORD PTR [rcx+rax+16]
	movss	DWORD PTR refl$7298[rsp], xmm0
; Line 369
	movss	xmm0, DWORD PTR refl$7298[rsp]
	comiss	xmm0, DWORD PTR __real@00000000
	jbe	$LN5@do_raytrac@2
; Line 371
	lea	rax, QWORD PTR $T85398[rsp]
	lea	rcx, QWORD PTR point_intersect$7278[rsp]
	mov	rdi, rax
	mov	rsi, rcx
	mov	ecx, 16
	rep movsb
	movsxd	rax, DWORD PTR prim_index$7280[rsp]
	imul	rax, 96					; 00000060H
	mov	rcx, QWORD PTR prim_list$[rsp]
	add	rcx, rax
	mov	rax, rcx
	lea	r8, QWORD PTR $T85398[rsp]
	mov	rdx, rax
	lea	rcx, QWORD PTR $T85347[rsp]
	call	?get_normal@@YA?ATcl_float4@@PEAUPrimitive@@T1@@Z ; get_normal
	lea	rcx, QWORD PTR $T85436[rsp]
	mov	rdi, rcx
	mov	rsi, rax
	mov	ecx, 16
	rep movsb
	lea	rax, QWORD PTR $T7301[rsp]
	lea	rcx, QWORD PTR $T85436[rsp]
	mov	rdi, rax
	mov	rsi, rcx
	mov	ecx, 16
	rep movsb
	lea	rax, QWORD PTR N$7300[rsp]
	lea	rcx, QWORD PTR $T7301[rsp]
	mov	rdi, rax
	mov	rsi, rcx
	mov	ecx, 16
	rep movsb
; Line 372
	lea	rax, QWORD PTR $T85400[rsp]
	lea	rcx, QWORD PTR N$7300[rsp]
	mov	rdi, rax
	mov	rsi, rcx
	mov	ecx, 16
	rep movsb
	lea	rax, QWORD PTR $T85399[rsp]
	lea	rcx, QWORD PTR cur_ray$7274[rsp+16]
	mov	rdi, rax
	mov	rsi, rcx
	mov	ecx, 16
	rep movsb
	lea	rax, QWORD PTR $T85401[rsp]
	lea	rcx, QWORD PTR N$7300[rsp]
	mov	rdi, rax
	mov	rsi, rcx
	mov	ecx, 16
	rep movsb
	lea	rdx, QWORD PTR $T85400[rsp]
	lea	rcx, QWORD PTR $T85399[rsp]
	call	?soft_dot@@YAMTcl_float4@@0@Z		; soft_dot
	movss	xmm1, DWORD PTR __real@40000000
	mulss	xmm1, xmm0
	movaps	xmm0, xmm1
	movaps	xmm2, xmm0
	lea	rdx, QWORD PTR $T85401[rsp]
	lea	rcx, QWORD PTR $T85348[rsp]
	call	?vector_scalar_mul@@YA?ATcl_float4@@T1@M@Z ; vector_scalar_mul
	lea	rcx, QWORD PTR $T85435[rsp]
	mov	rdi, rcx
	mov	rsi, rax
	mov	ecx, 16
	rep movsb
	lea	rax, QWORD PTR $T7303[rsp]
	lea	rcx, QWORD PTR $T85435[rsp]
	mov	rdi, rax
	mov	rsi, rcx
	mov	ecx, 16
	rep movsb
	lea	rax, QWORD PTR $T85403[rsp]
	lea	rcx, QWORD PTR $T7303[rsp]
	mov	rdi, rax
	mov	rsi, rcx
	mov	ecx, 16
	rep movsb
	lea	rax, QWORD PTR $T85402[rsp]
	lea	rcx, QWORD PTR cur_ray$7274[rsp+16]
	mov	rdi, rax
	mov	rsi, rcx
	mov	ecx, 16
	rep movsb
	lea	r8, QWORD PTR $T85403[rsp]
	lea	rdx, QWORD PTR $T85402[rsp]
	lea	rcx, QWORD PTR $T85349[rsp]
	call	?vector_sub@@YA?ATcl_float4@@T1@0@Z	; vector_sub
	lea	rcx, QWORD PTR $T85434[rsp]
	mov	rdi, rcx
	mov	rsi, rax
	mov	ecx, 16
	rep movsb
	lea	rax, QWORD PTR $T7304[rsp]
	lea	rcx, QWORD PTR $T85434[rsp]
	mov	rdi, rax
	mov	rsi, rcx
	mov	ecx, 16
	rep movsb
	lea	rax, QWORD PTR R$7302[rsp]
	lea	rcx, QWORD PTR $T7304[rsp]
	mov	rdi, rax
	mov	rsi, rcx
	mov	ecx, 16
	rep movsb
; Line 374
	lea	rax, QWORD PTR $T85404[rsp]
	lea	rcx, QWORD PTR R$7302[rsp]
	mov	rdi, rax
	mov	rsi, rcx
	mov	ecx, 16
	rep movsb
	movss	xmm2, DWORD PTR __real@3a83126f
	lea	rdx, QWORD PTR $T85404[rsp]
	lea	rcx, QWORD PTR $T85350[rsp]
	call	?vector_scalar_mul@@YA?ATcl_float4@@T1@M@Z ; vector_scalar_mul
	lea	rcx, QWORD PTR $T85433[rsp]
	mov	rdi, rcx
	mov	rsi, rax
	mov	ecx, 16
	rep movsb
	lea	rax, QWORD PTR $T7306[rsp]
	lea	rcx, QWORD PTR $T85433[rsp]
	mov	rdi, rax
	mov	rsi, rcx
	mov	ecx, 16
	rep movsb
	lea	rax, QWORD PTR $T85406[rsp]
	lea	rcx, QWORD PTR $T7306[rsp]
	mov	rdi, rax
	mov	rsi, rcx
	mov	ecx, 16
	rep movsb
	lea	rax, QWORD PTR $T85405[rsp]
	lea	rcx, QWORD PTR point_intersect$7278[rsp]
	mov	rdi, rax
	mov	rsi, rcx
	mov	ecx, 16
	rep movsb
	lea	r8, QWORD PTR $T85406[rsp]
	lea	rdx, QWORD PTR $T85405[rsp]
	lea	rcx, QWORD PTR $T85351[rsp]
	call	?vector_add@@YA?ATcl_float4@@T1@0@Z	; vector_add
	lea	rcx, QWORD PTR $T85432[rsp]
	mov	rdi, rcx
	mov	rsi, rax
	mov	ecx, 16
	rep movsb
	lea	rax, QWORD PTR $T7307[rsp]
	lea	rcx, QWORD PTR $T85432[rsp]
	mov	rdi, rax
	mov	rsi, rcx
	mov	ecx, 16
	rep movsb
	lea	rax, QWORD PTR new_ray$7305[rsp]
	lea	rcx, QWORD PTR $T7307[rsp]
	mov	rdi, rax
	mov	rsi, rcx
	mov	ecx, 16
	rep movsb
; Line 375
	lea	rax, QWORD PTR new_ray$7305[rsp+16]
	lea	rcx, QWORD PTR R$7302[rsp]
	mov	rdi, rax
	mov	rsi, rcx
	mov	ecx, 16
	rep movsb
; Line 376
	movss	xmm0, DWORD PTR cur_ray$7274[rsp+36]
	addss	xmm0, DWORD PTR __real@3f800000
	movss	DWORD PTR new_ray$7305[rsp+36], xmm0
; Line 377
	movss	xmm0, DWORD PTR refl$7298[rsp]
	mulss	xmm0, DWORD PTR cur_ray$7274[rsp+32]
	movss	DWORD PTR new_ray$7305[rsp+32], xmm0
; Line 378
	mov	DWORD PTR new_ray$7305[rsp+44], 1
; Line 379
	mov	eax, DWORD PTR prim_index$7280[rsp]
	mov	DWORD PTR new_ray$7305[rsp+40], eax
; Line 380
	movss	xmm0, DWORD PTR cur_ray$7274[rsp+48]
	movss	DWORD PTR new_ray$7305[rsp+48], xmm0
; Line 381
	lea	rax, QWORD PTR new_ray$7305[rsp+52]
	lea	rcx, QWORD PTR cur_ray$7274[rsp+52]
	mov	rdi, rax
	mov	rsi, rcx
	mov	ecx, 16
	rep movsb
; Line 382
	mov	eax, DWORD PTR max_ray_count$7240[rsp]
	cmp	DWORD PTR back_ray_ptr$7250[rsp], eax
	jl	SHORT $LN4@do_raytrac@2
	mov	DWORD PTR back_ray_ptr$7250[rsp], 0
$LN4@do_raytrac@2:
	movsxd	rax, DWORD PTR back_ray_ptr$7250[rsp]
	imul	rax, 68					; 00000044H
	mov	rcx, QWORD PTR queue$7242[rsp]
	lea	rdx, QWORD PTR new_ray$7305[rsp]
	lea	rdi, QWORD PTR [rcx+rax]
	mov	rsi, rdx
	mov	ecx, 68					; 00000044H
	rep movsb
	mov	eax, DWORD PTR back_ray_ptr$7250[rsp]
	inc	eax
	mov	DWORD PTR back_ray_ptr$7250[rsp], eax
	mov	eax, DWORD PTR rays_in_queue$7248[rsp]
	inc	eax
	mov	DWORD PTR rays_in_queue$7248[rsp], eax
$LN5@do_raytrac@2:
; Line 385
	movsxd	rax, DWORD PTR prim_index$7280[rsp]
	imul	rax, 96					; 00000060H
	mov	rcx, QWORD PTR prim_list$[rsp]
	movss	xmm0, DWORD PTR [rcx+rax+24]
	movss	DWORD PTR refr$7309[rsp], xmm0
; Line 386
	movss	xmm0, DWORD PTR refr$7309[rsp]
	comiss	xmm0, DWORD PTR __real@00000000
	jbe	$LN3@do_raytrac@2
; Line 388
	movsxd	rax, DWORD PTR prim_index$7280[rsp]
	imul	rax, 96					; 00000060H
	mov	rcx, QWORD PTR prim_list$[rsp]
	movss	xmm0, DWORD PTR [rcx+rax+28]
	movss	DWORD PTR m_rindex$7311[rsp], xmm0
; Line 389
	movss	xmm0, DWORD PTR cur_ray$7274[rsp+48]
	divss	xmm0, DWORD PTR m_rindex$7311[rsp]
	movss	DWORD PTR n$7312[rsp], xmm0
; Line 390
	lea	rax, QWORD PTR $T85407[rsp]
	lea	rcx, QWORD PTR point_intersect$7278[rsp]
	mov	rdi, rax
	mov	rsi, rcx
	mov	ecx, 16
	rep movsb
	movsxd	rax, DWORD PTR prim_index$7280[rsp]
	imul	rax, 96					; 00000060H
	mov	rcx, QWORD PTR prim_list$[rsp]
	add	rcx, rax
	mov	rax, rcx
	lea	r8, QWORD PTR $T85407[rsp]
	mov	rdx, rax
	lea	rcx, QWORD PTR $T85352[rsp]
	call	?get_normal@@YA?ATcl_float4@@PEAUPrimitive@@T1@@Z ; get_normal
	lea	rcx, QWORD PTR $T85431[rsp]
	mov	rdi, rcx
	mov	rsi, rax
	mov	ecx, 16
	rep movsb
	lea	rax, QWORD PTR $T7314[rsp]
	lea	rcx, QWORD PTR $T85431[rsp]
	mov	rdi, rax
	mov	rsi, rcx
	mov	ecx, 16
	rep movsb
	lea	rax, QWORD PTR $T85408[rsp]
	lea	rcx, QWORD PTR $T7314[rsp]
	mov	rdi, rax
	mov	rsi, rcx
	mov	ecx, 16
	rep movsb
	movd	xmm0, DWORD PTR result$7279[rsp]
	cvtdq2ps xmm0, xmm0
	movaps	xmm2, xmm0
	lea	rdx, QWORD PTR $T85408[rsp]
	lea	rcx, QWORD PTR $T85353[rsp]
	call	?vector_scalar_mul@@YA?ATcl_float4@@T1@M@Z ; vector_scalar_mul
	lea	rcx, QWORD PTR $T85430[rsp]
	mov	rdi, rcx
	mov	rsi, rax
	mov	ecx, 16
	rep movsb
	lea	rax, QWORD PTR $T7316[rsp]
	lea	rcx, QWORD PTR $T85430[rsp]
	mov	rdi, rax
	mov	rsi, rcx
	mov	ecx, 16
	rep movsb
	lea	rax, QWORD PTR N$7313[rsp]
	lea	rcx, QWORD PTR $T7316[rsp]
	mov	rdi, rax
	mov	rsi, rcx
	mov	ecx, 16
	rep movsb
; Line 391
	lea	rax, QWORD PTR $T85410[rsp]
	lea	rcx, QWORD PTR cur_ray$7274[rsp+16]
	mov	rdi, rax
	mov	rsi, rcx
	mov	ecx, 16
	rep movsb
	lea	rax, QWORD PTR $T85409[rsp]
	lea	rcx, QWORD PTR N$7313[rsp]
	mov	rdi, rax
	mov	rsi, rcx
	mov	ecx, 16
	rep movsb
	lea	rdx, QWORD PTR $T85410[rsp]
	lea	rcx, QWORD PTR $T85409[rsp]
	call	?soft_dot@@YAMTcl_float4@@0@Z		; soft_dot
	xorps	xmm0, DWORD PTR __mask@@NegFloat@
	movss	DWORD PTR cosI$7317[rsp], xmm0
; Line 392
	movss	xmm0, DWORD PTR n$7312[rsp]
	mulss	xmm0, DWORD PTR n$7312[rsp]
	movss	xmm1, DWORD PTR cosI$7317[rsp]
	mulss	xmm1, DWORD PTR cosI$7317[rsp]
	movss	xmm2, DWORD PTR __real@3f800000
	subss	xmm2, xmm1
	movaps	xmm1, xmm2
	mulss	xmm0, xmm1
	movss	xmm1, DWORD PTR __real@3f800000
	subss	xmm1, xmm0
	movaps	xmm0, xmm1
	movss	DWORD PTR cosT2$7318[rsp], xmm0
; Line 393
	movss	xmm0, DWORD PTR cosT2$7318[rsp]
	comiss	xmm0, DWORD PTR __real@00000000
	jbe	$LN2@do_raytrac@2
; Line 395
	lea	rax, QWORD PTR $T85411[rsp]
	lea	rcx, QWORD PTR N$7313[rsp]
	mov	rdi, rax
	mov	rsi, rcx
	mov	ecx, 16
	rep movsb
	movss	xmm0, DWORD PTR cosT2$7318[rsp]
	call	?sqrt@@YAMM@Z				; sqrt
	movss	xmm1, DWORD PTR n$7312[rsp]
	mulss	xmm1, DWORD PTR cosI$7317[rsp]
	subss	xmm1, xmm0
	movaps	xmm0, xmm1
	movaps	xmm2, xmm0
	lea	rdx, QWORD PTR $T85411[rsp]
	lea	rcx, QWORD PTR $T85354[rsp]
	call	?vector_scalar_mul@@YA?ATcl_float4@@T1@M@Z ; vector_scalar_mul
	lea	rcx, QWORD PTR $T85429[rsp]
	mov	rdi, rcx
	mov	rsi, rax
	mov	ecx, 16
	rep movsb
	lea	rax, QWORD PTR $T7322[rsp]
	lea	rcx, QWORD PTR $T85429[rsp]
	mov	rdi, rax
	mov	rsi, rcx
	mov	ecx, 16
	rep movsb
	lea	rax, QWORD PTR $T85412[rsp]
	lea	rcx, QWORD PTR cur_ray$7274[rsp+16]
	mov	rdi, rax
	mov	rsi, rcx
	mov	ecx, 16
	rep movsb
	movss	xmm2, DWORD PTR n$7312[rsp]
	lea	rdx, QWORD PTR $T85412[rsp]
	lea	rcx, QWORD PTR $T85355[rsp]
	call	?vector_scalar_mul@@YA?ATcl_float4@@T1@M@Z ; vector_scalar_mul
	lea	rcx, QWORD PTR $T85428[rsp]
	mov	rdi, rcx
	mov	rsi, rax
	mov	ecx, 16
	rep movsb
	lea	rax, QWORD PTR $T7321[rsp]
	lea	rcx, QWORD PTR $T85428[rsp]
	mov	rdi, rax
	mov	rsi, rcx
	mov	ecx, 16
	rep movsb
	lea	rax, QWORD PTR $T85414[rsp]
	lea	rcx, QWORD PTR $T7322[rsp]
	mov	rdi, rax
	mov	rsi, rcx
	mov	ecx, 16
	rep movsb
	lea	rax, QWORD PTR $T85413[rsp]
	lea	rcx, QWORD PTR $T7321[rsp]
	mov	rdi, rax
	mov	rsi, rcx
	mov	ecx, 16
	rep movsb
	lea	r8, QWORD PTR $T85414[rsp]
	lea	rdx, QWORD PTR $T85413[rsp]
	lea	rcx, QWORD PTR $T85356[rsp]
	call	?vector_add@@YA?ATcl_float4@@T1@0@Z	; vector_add
	lea	rcx, QWORD PTR $T85427[rsp]
	mov	rdi, rcx
	mov	rsi, rax
	mov	ecx, 16
	rep movsb
	lea	rax, QWORD PTR $T7323[rsp]
	lea	rcx, QWORD PTR $T85427[rsp]
	mov	rdi, rax
	mov	rsi, rcx
	mov	ecx, 16
	rep movsb
	lea	rax, QWORD PTR T$7320[rsp]
	lea	rcx, QWORD PTR $T7323[rsp]
	mov	rdi, rax
	mov	rsi, rcx
	mov	ecx, 16
	rep movsb
; Line 397
	lea	rax, QWORD PTR $T85415[rsp]
	lea	rcx, QWORD PTR T$7320[rsp]
	mov	rdi, rax
	mov	rsi, rcx
	mov	ecx, 16
	rep movsb
	movss	xmm2, DWORD PTR __real@3a83126f
	lea	rdx, QWORD PTR $T85415[rsp]
	lea	rcx, QWORD PTR $T85357[rsp]
	call	?vector_scalar_mul@@YA?ATcl_float4@@T1@M@Z ; vector_scalar_mul
	lea	rcx, QWORD PTR $T85426[rsp]
	mov	rdi, rcx
	mov	rsi, rax
	mov	ecx, 16
	rep movsb
	lea	rax, QWORD PTR $T7325[rsp]
	lea	rcx, QWORD PTR $T85426[rsp]
	mov	rdi, rax
	mov	rsi, rcx
	mov	ecx, 16
	rep movsb
	lea	rax, QWORD PTR $T85417[rsp]
	lea	rcx, QWORD PTR $T7325[rsp]
	mov	rdi, rax
	mov	rsi, rcx
	mov	ecx, 16
	rep movsb
	lea	rax, QWORD PTR $T85416[rsp]
	lea	rcx, QWORD PTR point_intersect$7278[rsp]
	mov	rdi, rax
	mov	rsi, rcx
	mov	ecx, 16
	rep movsb
	lea	r8, QWORD PTR $T85417[rsp]
	lea	rdx, QWORD PTR $T85416[rsp]
	lea	rcx, QWORD PTR $T85358[rsp]
	call	?vector_add@@YA?ATcl_float4@@T1@0@Z	; vector_add
	lea	rcx, QWORD PTR $T85425[rsp]
	mov	rdi, rcx
	mov	rsi, rax
	mov	ecx, 16
	rep movsb
	lea	rax, QWORD PTR $T7326[rsp]
	lea	rcx, QWORD PTR $T85425[rsp]
	mov	rdi, rax
	mov	rsi, rcx
	mov	ecx, 16
	rep movsb
	lea	rax, QWORD PTR new_ray$7324[rsp]
	lea	rcx, QWORD PTR $T7326[rsp]
	mov	rdi, rax
	mov	rsi, rcx
	mov	ecx, 16
	rep movsb
; Line 398
	lea	rax, QWORD PTR new_ray$7324[rsp+16]
	lea	rcx, QWORD PTR T$7320[rsp]
	mov	rdi, rax
	mov	rsi, rcx
	mov	ecx, 16
	rep movsb
; Line 399
	movss	xmm0, DWORD PTR cur_ray$7274[rsp+36]
	addss	xmm0, DWORD PTR __real@3f800000
	movss	DWORD PTR new_ray$7324[rsp+36], xmm0
; Line 400
	movss	xmm0, DWORD PTR cur_ray$7274[rsp+32]
	movss	DWORD PTR new_ray$7324[rsp+32], xmm0
; Line 401
	mov	DWORD PTR new_ray$7324[rsp+44], 2
; Line 402
	mov	eax, DWORD PTR prim_index$7280[rsp]
	mov	DWORD PTR new_ray$7324[rsp+40], eax
; Line 403
	movss	xmm0, DWORD PTR m_rindex$7311[rsp]
	movss	DWORD PTR new_ray$7324[rsp+48], xmm0
; Line 404
	movsxd	rax, DWORD PTR prim_index$7280[rsp]
	imul	rax, 96					; 00000060H
	lea	rcx, QWORD PTR $T85418[rsp]
	mov	rdx, QWORD PTR prim_list$[rsp]
	mov	rdi, rcx
	lea	rsi, QWORD PTR [rdx+rax]
	mov	ecx, 16
	rep movsb
	movss	xmm0, DWORD PTR dist$7273[rsp]
	xorps	xmm0, DWORD PTR __mask@@NegFloat@
	movss	xmm1, DWORD PTR __real@3e19999a
	mulss	xmm1, xmm0
	movaps	xmm0, xmm1
	movaps	xmm2, xmm0
	lea	rdx, QWORD PTR $T85418[rsp]
	lea	rcx, QWORD PTR $T85359[rsp]
	call	?vector_scalar_mul@@YA?ATcl_float4@@T1@M@Z ; vector_scalar_mul
	lea	rcx, QWORD PTR $T85424[rsp]
	mov	rdi, rcx
	mov	rsi, rax
	mov	ecx, 16
	rep movsb
	lea	rax, QWORD PTR $T7327[rsp]
	lea	rcx, QWORD PTR $T85424[rsp]
	mov	rdi, rax
	mov	rsi, rcx
	mov	ecx, 16
	rep movsb
	lea	rax, QWORD PTR $T85419[rsp]
	lea	rcx, QWORD PTR $T7327[rsp]
	mov	rdi, rax
	mov	rsi, rcx
	mov	ecx, 16
	rep movsb
	lea	rdx, QWORD PTR $T85419[rsp]
	lea	rcx, QWORD PTR $T85360[rsp]
	call	?vector_exp@@YA?ATcl_float4@@T1@@Z	; vector_exp
	lea	rcx, QWORD PTR $T85423[rsp]
	mov	rdi, rcx
	mov	rsi, rax
	mov	ecx, 16
	rep movsb
	lea	rax, QWORD PTR $T7328[rsp]
	lea	rcx, QWORD PTR $T85423[rsp]
	mov	rdi, rax
	mov	rsi, rcx
	mov	ecx, 16
	rep movsb
	lea	rax, QWORD PTR $T85421[rsp]
	lea	rcx, QWORD PTR $T7328[rsp]
	mov	rdi, rax
	mov	rsi, rcx
	mov	ecx, 16
	rep movsb
	lea	rax, QWORD PTR $T85420[rsp]
	lea	rcx, QWORD PTR cur_ray$7274[rsp+52]
	mov	rdi, rax
	mov	rsi, rcx
	mov	ecx, 16
	rep movsb
	lea	r8, QWORD PTR $T85421[rsp]
	lea	rdx, QWORD PTR $T85420[rsp]
	lea	rcx, QWORD PTR $T85361[rsp]
	call	?vector_mul@@YA?ATcl_float4@@T1@0@Z	; vector_mul
	lea	rcx, QWORD PTR $T85422[rsp]
	mov	rdi, rcx
	mov	rsi, rax
	mov	ecx, 16
	rep movsb
	lea	rax, QWORD PTR $T7329[rsp]
	lea	rcx, QWORD PTR $T85422[rsp]
	mov	rdi, rax
	mov	rsi, rcx
	mov	ecx, 16
	rep movsb
	lea	rax, QWORD PTR new_ray$7324[rsp+52]
	lea	rcx, QWORD PTR $T7329[rsp]
	mov	rdi, rax
	mov	rsi, rcx
	mov	ecx, 16
	rep movsb
; Line 405
	mov	eax, DWORD PTR max_ray_count$7240[rsp]
	cmp	DWORD PTR back_ray_ptr$7250[rsp], eax
	jl	SHORT $LN1@do_raytrac@2
	mov	DWORD PTR back_ray_ptr$7250[rsp], 0
$LN1@do_raytrac@2:
	movsxd	rax, DWORD PTR back_ray_ptr$7250[rsp]
	imul	rax, 68					; 00000044H
	mov	rcx, QWORD PTR queue$7242[rsp]
	lea	rdx, QWORD PTR new_ray$7324[rsp]
	lea	rdi, QWORD PTR [rcx+rax]
	mov	rsi, rdx
	mov	ecx, 68					; 00000044H
	rep movsb
	mov	eax, DWORD PTR back_ray_ptr$7250[rsp]
	inc	eax
	mov	DWORD PTR back_ray_ptr$7250[rsp], eax
	mov	eax, DWORD PTR rays_in_queue$7248[rsp]
	inc	eax
	mov	DWORD PTR rays_in_queue$7248[rsp], eax
$LN2@do_raytrac@2:
$LN3@do_raytrac@2:
$LN6@do_raytrac@2:
; Line 409
	jmp	$LN14@do_raytrac@2
$LN13@do_raytrac@2:
; Line 410
	jmp	$LN17@do_raytrac@2
$LN16@do_raytrac@2:
; Line 411
	jmp	$LN20@do_raytrac@2
$LN19@do_raytrac@2:
; Line 414
	movss	xmm0, DWORD PTR acc$7253[rsp]
	mulss	xmm0, DWORD PTR __real@41e00000
	comiss	xmm0, DWORD PTR __real@00000000
	jbe	SHORT $LN31@do_raytrac@2
	movss	xmm0, DWORD PTR acc$7253[rsp]
	mulss	xmm0, DWORD PTR __real@41e00000
	movss	DWORD PTR tv575[rsp], xmm0
	jmp	SHORT $LN32@do_raytrac@2
$LN31@do_raytrac@2:
	xorps	xmm0, xmm0
	movss	DWORD PTR tv575[rsp], xmm0
$LN32@do_raytrac@2:
	movss	xmm0, DWORD PTR __real@437f0000
	comiss	xmm0, DWORD PTR tv575[rsp]
	jbe	SHORT $LN35@do_raytrac@2
	movss	xmm0, DWORD PTR acc$7253[rsp]
	mulss	xmm0, DWORD PTR __real@41e00000
	comiss	xmm0, DWORD PTR __real@00000000
	jbe	SHORT $LN33@do_raytrac@2
	movss	xmm0, DWORD PTR acc$7253[rsp]
	mulss	xmm0, DWORD PTR __real@41e00000
	movss	DWORD PTR tv582[rsp], xmm0
	jmp	SHORT $LN34@do_raytrac@2
$LN33@do_raytrac@2:
	xorps	xmm0, xmm0
	movss	DWORD PTR tv582[rsp], xmm0
$LN34@do_raytrac@2:
	movss	xmm0, DWORD PTR tv582[rsp]
	movss	DWORD PTR tv583[rsp], xmm0
	jmp	SHORT $LN36@do_raytrac@2
$LN35@do_raytrac@2:
	movss	xmm0, DWORD PTR __real@437f0000
	movss	DWORD PTR tv583[rsp], xmm0
$LN36@do_raytrac@2:
	cvttss2si rax, DWORD PTR tv583[rsp]
	mov	BYTE PTR temp$7331[rsp], al
; Line 415
	movss	xmm0, DWORD PTR acc$7253[rsp+4]
	mulss	xmm0, DWORD PTR __real@41e00000
	comiss	xmm0, DWORD PTR __real@00000000
	jbe	SHORT $LN37@do_raytrac@2
	movss	xmm0, DWORD PTR acc$7253[rsp+4]
	mulss	xmm0, DWORD PTR __real@41e00000
	movss	DWORD PTR tv593[rsp], xmm0
	jmp	SHORT $LN38@do_raytrac@2
$LN37@do_raytrac@2:
	xorps	xmm0, xmm0
	movss	DWORD PTR tv593[rsp], xmm0
$LN38@do_raytrac@2:
	movss	xmm0, DWORD PTR __real@437f0000
	comiss	xmm0, DWORD PTR tv593[rsp]
	jbe	SHORT $LN41@do_raytrac@2
	movss	xmm0, DWORD PTR acc$7253[rsp+4]
	mulss	xmm0, DWORD PTR __real@41e00000
	comiss	xmm0, DWORD PTR __real@00000000
	jbe	SHORT $LN39@do_raytrac@2
	movss	xmm0, DWORD PTR acc$7253[rsp+4]
	mulss	xmm0, DWORD PTR __real@41e00000
	movss	DWORD PTR tv602[rsp], xmm0
	jmp	SHORT $LN40@do_raytrac@2
$LN39@do_raytrac@2:
	xorps	xmm0, xmm0
	movss	DWORD PTR tv602[rsp], xmm0
$LN40@do_raytrac@2:
	movss	xmm0, DWORD PTR tv602[rsp]
	movss	DWORD PTR tv603[rsp], xmm0
	jmp	SHORT $LN42@do_raytrac@2
$LN41@do_raytrac@2:
	movss	xmm0, DWORD PTR __real@437f0000
	movss	DWORD PTR tv603[rsp], xmm0
$LN42@do_raytrac@2:
	cvttss2si rax, DWORD PTR tv603[rsp]
	mov	BYTE PTR temp$7331[rsp+1], al
; Line 416
	movss	xmm0, DWORD PTR acc$7253[rsp+8]
	mulss	xmm0, DWORD PTR __real@41e00000
	comiss	xmm0, DWORD PTR __real@00000000
	jbe	SHORT $LN43@do_raytrac@2
	movss	xmm0, DWORD PTR acc$7253[rsp+8]
	mulss	xmm0, DWORD PTR __real@41e00000
	movss	DWORD PTR tv613[rsp], xmm0
	jmp	SHORT $LN44@do_raytrac@2
$LN43@do_raytrac@2:
	xorps	xmm0, xmm0
	movss	DWORD PTR tv613[rsp], xmm0
$LN44@do_raytrac@2:
	movss	xmm0, DWORD PTR __real@437f0000
	comiss	xmm0, DWORD PTR tv613[rsp]
	jbe	SHORT $LN47@do_raytrac@2
	movss	xmm0, DWORD PTR acc$7253[rsp+8]
	mulss	xmm0, DWORD PTR __real@41e00000
	comiss	xmm0, DWORD PTR __real@00000000
	jbe	SHORT $LN45@do_raytrac@2
	movss	xmm0, DWORD PTR acc$7253[rsp+8]
	mulss	xmm0, DWORD PTR __real@41e00000
	movss	DWORD PTR tv622[rsp], xmm0
	jmp	SHORT $LN46@do_raytrac@2
$LN45@do_raytrac@2:
	xorps	xmm0, xmm0
	movss	DWORD PTR tv622[rsp], xmm0
$LN46@do_raytrac@2:
	movss	xmm0, DWORD PTR tv622[rsp]
	movss	DWORD PTR tv623[rsp], xmm0
	jmp	SHORT $LN48@do_raytrac@2
$LN47@do_raytrac@2:
	movss	xmm0, DWORD PTR __real@437f0000
	movss	DWORD PTR tv623[rsp], xmm0
$LN48@do_raytrac@2:
	cvttss2si rax, DWORD PTR tv623[rsp]
	mov	BYTE PTR temp$7331[rsp+2], al
; Line 417
	mov	BYTE PTR temp$7331[rsp+3], 0
; Line 419
	mov	eax, DWORD PTR y$7230[rsp]
	imul	eax, DWORD PTR image_width$[rsp]
	add	eax, DWORD PTR x$7234[rsp]
	cdqe
	mov	rcx, QWORD PTR out_pixels$[rsp]
	mov	edx, DWORD PTR temp$7331[rsp]
	mov	DWORD PTR [rcx+rax*4], edx
; Line 420
	mov	rcx, QWORD PTR queue$7242[rsp]
	call	QWORD PTR __imp_free
; Line 421
	jmp	$LN24@do_raytrac@2
$LN23@do_raytrac@2:
; Line 422
	jmp	$LN27@do_raytrac@2
$LN26@do_raytrac@2:
; Line 424
	call	?get_time@@YANXZ			; get_time
	movsdx	QWORD PTR fend$[rsp], xmm0
; Line 425
	call	QWORD PTR __imp___iob_func
	add	rax, 96					; 00000060H
	lea	rdx, OFFSET FLAT:$SG-419
	mov	rcx, rax
	call	QWORD PTR __imp_fprintf
; Line 426
	movsdx	xmm0, QWORD PTR fend$[rsp]
	subsd	xmm0, QWORD PTR fstart$[rsp]
	movsdx	QWORD PTR tv638[rsp], xmm0
	call	QWORD PTR __imp___iob_func
	add	rax, 96					; 00000060H
	movsdx	xmm0, QWORD PTR tv638[rsp]
	movapd	xmm2, xmm0
	movd	r8, xmm2
	lea	rdx, OFFSET FLAT:$SG-420
	mov	rcx, rax
	call	QWORD PTR __imp_fprintf
; Line 428
	xor	eax, eax
$LN29@do_raytrac@2:
; Line 429
	mov	rdi, rax
	mov	rcx, rsp
	lea	rdx, OFFSET FLAT:?do_raytrace_no_ocl@@YAHPEATcl_uchar4@@PEAUPrimitive@@HHHHMMMMM@Z$rtcFrameData
	call	_RTC_CheckStackVars
	mov	rax, rdi
	mov	rcx, QWORD PTR __$ArrayPad$[rsp]
	xor	rcx, rsp
	call	__security_check_cookie
	add	rsp, 3432				; 00000d68H
	pop	rdi
	pop	rsi
	ret	0
?do_raytrace_no_ocl@@YAHPEATcl_uchar4@@PEAUPrimitive@@HHHHMMMMM@Z ENDP ; do_raytrace_no_ocl
END
