; Listing generated by Microsoft (R) Optimizing Compiler Version 16.00.40219.01 

include listing.inc

INCLUDELIB OLDNAMES

PUBLIC	?command_queue@@3PEAU_cl_command_queue@@EA	; command_queue
PUBLIC	?program@@3PEAU_cl_program@@EA			; program
PUBLIC	?context@@3PEAU_cl_context@@EA			; context
PUBLIC	?devices@@3PEAPEAU_cl_device_id@@EA		; devices
PUBLIC	?raytracer_kernel@@3PEAU_cl_kernel@@EA		; raytracer_kernel
PUBLIC	?primitive_buffer@@3PEAU_cl_mem@@EA		; primitive_buffer
PUBLIC	?pixel_buffer@@3PEAU_cl_mem@@EA			; pixel_buffer
EXTRN	__imp_??2@YAPEAX_K@Z:PROC
EXTRN	__imp_??3@YAXPEAX@Z:PROC
EXTRN	__imp_calloc:PROC
EXTRN	__imp_strlen:PROC
EXTRN	__imp_clGetPlatformIDs:PROC
EXTRN	__imp_clGetPlatformInfo:PROC
EXTRN	__imp_clCreateContextFromType:PROC
EXTRN	__imp_clGetContextInfo:PROC
EXTRN	__imp_clCreateCommandQueue:PROC
EXTRN	__imp_clCreateBuffer:PROC
EXTRN	__imp_clCreateProgramWithSource:PROC
EXTRN	__imp_clBuildProgram:PROC
EXTRN	__imp_clGetProgramBuildInfo:PROC
EXTRN	__imp_clCreateKernel:PROC
EXTRN	__imp_clEnqueueWriteBuffer:PROC
EXTRN	__imp_fread:PROC
EXTRN	__imp_fseek:PROC
EXTRN	__imp_ftell:PROC
EXTRN	__imp_rewind:PROC
EXTRN	__imp_exit:PROC
EXTRN	__imp_clGetDeviceInfo:PROC
EXTRN	__imp_clSetKernelArg:PROC
EXTRN	__imp_clWaitForEvents:PROC
EXTRN	__imp_clReleaseEvent:PROC
EXTRN	__imp_clEnqueueReadBuffer:PROC
EXTRN	__imp_clEnqueueNDRangeKernel:PROC
EXTRN	__imp_clReleaseContext:PROC
EXTRN	__imp_clReleaseCommandQueue:PROC
EXTRN	__imp_clReleaseMemObject:PROC
EXTRN	__imp_clReleaseProgram:PROC
EXTRN	__imp_clReleaseKernel:PROC
EXTRN	__imp_strcpy:PROC
EXTRN	__imp_strcat:PROC
?command_queue@@3PEAU_cl_command_queue@@EA DQ 01H DUP (?) ; command_queue
?program@@3PEAU_cl_program@@EA DQ 01H DUP (?)		; program
?context@@3PEAU_cl_context@@EA DQ 01H DUP (?)		; context
?devices@@3PEAPEAU_cl_device_id@@EA DQ 01H DUP (?)	; devices
?raytracer_kernel@@3PEAU_cl_kernel@@EA DQ 01H DUP (?)	; raytracer_kernel
?primitive_buffer@@3PEAU_cl_mem@@EA DQ 01H DUP (?)	; primitive_buffer
?pixel_buffer@@3PEAU_cl_mem@@EA DQ 01H DUP (?)		; pixel_buffer
$SG-654	DB	'rb', 00H
	ORG $+5
$SG-655	DB	'Failed to open file ''%s''', 0aH, 00H
	ORG $+2
$SG-692	DB	'%s', 0aH, 00H
$SG-656	DB	'Failed to seek file ''%s''', 0aH, 00H
	ORG $+2
$SG-657	DB	'Failed to check position on file ''%s''', 0aH, 00H
	ORG $+1
$SG-658	DB	'Failed to allocate memory for file ''%s''', 0aH, 00H
	ORG $+3
$SG-735	DB	'Done', 0aH, 00H
	ORG $+1
$SG-659	DB	'Reading file ''%s'' (size %ld bytes)', 0aH, 00H
	ORG $+2
$SG-660	DB	'Failed to read file ''%s'' (read %ld)', 0aH, 00H
	ORG $+3
$SG-661	DB	'Error: Getting Platforms. (clGetPlatformsIDs)', 0aH, 00H
	ORG $+1
$SG-662	DB	'Error: Getting Platform Ids. (clGetPlatformsIDs)', 0aH, 00H
	ORG $+2
$SG-663	DB	'Error: Getting Platform Info.(clGetPlatformInfo)', 0aH, 00H
	ORG $+2
$SG-664	DB	'OpenCL Platform %d: %s', 0aH, 00H
$SG-665	DB	'Using platform %d.', 0aH, 00H
	ORG $+1
$SG-666	DB	'NULL platform found so Exiting Application.', 00H
	ORG $+4
$SG-667	DB	'Error: Creating Context. (clCreateContextFromType)', 0aH
	DB	00H
	ORG $+6
$SG-668	DB	'Error: Getting Context Info             (device list siz'
	DB	'e, clGetContextInfo)', 0aH, 00H
	ORG $+2
$SG-669	DB	'Error: No devices found.', 0aH, 00H
	ORG $+6
$SG-670	DB	'Error: Getting Context Info             (device list, cl'
	DB	'GetContextInfo)', 0aH, 00H
	ORG $+7
$SG-671	DB	'Failed to get OpenCL device info: %d', 0aH, 00H
	ORG $+2
$SG-672	DB	'TYPE_ALL', 00H
	ORG $+7
$SG-673	DB	'TYPE_DEFAULT', 00H
	ORG $+3
$SG-674	DB	'TYPE_CPU', 00H
	ORG $+7
$SG-675	DB	'TYPE_GPU', 00H
	ORG $+7
$SG-676	DB	'TYPE_UNKNOWN', 00H
	ORG $+3
$SG-677	DB	'OpenCL Device %d: Type = %s', 0aH, 00H
	ORG $+3
$SG-678	DB	'Failed to get OpenCL device info: %d', 0aH, 00H
	ORG $+2
$SG-679	DB	'OpenCL Device %d: Name = %s', 0aH, 00H
	ORG $+3
$SG-680	DB	'Failed to get OpenCL device info: %d', 0aH, 00H
	ORG $+2
$SG-681	DB	'OpenCL Device %d: Compute units = %u', 0aH, 00H
	ORG $+2
$SG-682	DB	'Failed to get OpenCL device info: %d', 0aH, 00H
	ORG $+2
$SG-683	DB	'OpenCL Device %d: Max. work group size = %d', 0aH, 00H
	ORG $+3
$SG-684	DB	'Error: Creating Command Queue. (clCreateCommandQueue)', 0aH
	DB	00H
	ORG $+1
$SG-685	DB	'Error: clCreateBuffer (primitive_buffer): %d', 0aH, 00H
	ORG $+2
$SG-686	DB	'Error: Failed to write the primitive_buffer: %d', 0aH, 00H
	ORG $+7
$SG-687	DB	'Error: clCreateBuffer (pixel_buffer)', 0aH, 00H
	ORG $+2
$SG-688	DB	'Error: Failed to write the pixel_buffer: %d', 0aH, 00H
	ORG $+3
$SG-689	DB	'raytracer_kernel.cl', 00H
	ORG $+6
$SG-690	DB	'Error: Loading Binary into cl_program                (cl'
	DB	'CreateProgramWithBinary)', 0aH, 00H
	ORG $+6
$SG-691	DB	'Error: Building Program (clBuildProgram): %d', 0aH, 00H
	ORG $+2
$SG-693	DB	'raytracer_kernel', 00H
	ORG $+7
$SG-694	DB	'Error: Creating Kernel from program. (clCreateKernel)', 0aH
	DB	00H
	ORG $+1
$SG-695	DB	'Error: Getting Device Info. (clGetDeviceInfo)', 0aH, 00H
	ORG $+1
$SG-696	DB	'Error: Getting Device Info. (clGetDeviceInfo)', 0aH, 00H
	ORG $+1
$SG-697	DB	'Error: Getting Device Info. (clGetDeviceInfo)', 0aH, 00H
	ORG $+1
$SG-699	DB	'Error: Setting kernel argument. (pixel_buffer)', 0aH, 00H
$SG-705	DB	'Error: Setting kernel argument. (viewport_width)', 0aH, 00H
	ORG $+6
$SG-698	DB	'Unsupported: Device does not support requested number of'
	DB	' work items.', 00H
	ORG $+3
$SG-700	DB	'Error: Setting kernel argument. (width)', 0aH, 00H
	ORG $+7
$SG-701	DB	'Error: Setting kernel argument. (height)', 0aH, 00H
	ORG $+6
$SG-702	DB	'Error: Setting kernel argument. (camera_x) %d', 0aH, 00H
	ORG $+1
$SG-703	DB	'Error: Setting kernel argument. (camera_y)', 0aH, 00H
	ORG $+4
$SG-704	DB	'Error: Setting kernel argument. (camera_z)', 0aH, 00H
	ORG $+4
$SG-706	DB	'Error: Setting kernel argument. (viewport_height)', 0aH, 00H
	ORG $+5
$SG-707	DB	'Error: Setting kernel argument. (primitive_buffer)', 0aH
	DB	00H
	ORG $+4
$SG-708	DB	'Error: Setting kernel argument. (n_primitives) : %d', 0aH
	DB	00H
	ORG $+3
$SG-709	DB	'Error: Setting kernel argument. (local_prims)', 0aH, 00H
	ORG $+1
$SG-710	DB	'Error: Enqueueing kernel onto command queue.            '
	DB	' (clEnqueueNDRangeKernel)', 0aH, 00H
	ORG $+5
$SG-716	DB	'Error: In clReleaseKernel ', 0aH, 00H
	ORG $+6
$SG-711	DB	'Error: Waiting for kernel run to finish.             (cl'
	DB	'WaitForEvents)', 0aH, 00H
$SG-712	DB	'Error: Release event object.             (clReleaseEvent'
	DB	')', 0aH, 00H
	ORG $+5
$SG-717	DB	'Error: In clReleaseProgram', 0aH, 00H
	ORG $+7
$SG-713	DB	'Error: clEnqueueReadBuffer failed.              (clEnque'
	DB	'ueReadBuffer)', 0aH, 00H
	ORG $+1
$SG-718	DB	'Error: In clReleaseMemObject (primitive_buffer)', 0aH, 00H
	ORG $+7
$SG-714	DB	'Error: Waiting for read buffer call to finish.          '
	DB	'   (clWaitForEvents)', 0aH, 00H
	ORG $+2
$SG-715	DB	'Error: Release event object.             (clReleaseEvent'
	DB	')', 0aH, 00H
	ORG $+5
$SG-719	DB	'Error: In clReleaseMemObject (pixel_buffer)', 0aH, 00H
	ORG $+3
$SG-720	DB	'Error: In clReleaseCommandQueue', 0aH, 00H
	ORG $+7
$SG-721	DB	'Error: In clReleaseContext', 0aH, 00H
	ORG $+4
$SG-722	DB	'-I. -D__OPENCL__ ', 00H
	ORG $+6
$SG-723	DB	'Warning: Max tracedepth supported is 5. Using 5.', 00H
	ORG $+7
$SG-724	DB	'-DD_TRACEDEPTH_5 ', 00H
	ORG $+6
$SG-725	DB	'-DD_TRACEDEPTH_4 ', 00H
	ORG $+6
$SG-726	DB	'-DD_TRACEDEPTH_3 ', 00H
	ORG $+6
$SG-727	DB	'-DD_TRACEDEPTH_2 ', 00H
	ORG $+6
$SG-728	DB	'-DD_TRACEDEPTH_1 ', 00H
	ORG $+6
$SG-729	DB	'-DD_TRACEDEPTH_0 ', 00H
	ORG $+6
$SG-730	DB	'-DD_FAST_NORMALIZE ', 00H
	ORG $+4
$SG-731	DB	'-DD_BUILTIN_NORMALIZE ', 00H
	ORG $+1
$SG-732	DB	'-DD_NATIVE_SQRT ', 00H
	ORG $+7
$SG-733	DB	'-DD_BUILTIN_DOT ', 00H
	ORG $+7
$SG-734	DB	'-DD_BUILTIN_LEN ', 00H
	ORG $+7
$SG-736	DB	'Elapsed time: %f s', 0aH, 00H
PUBLIC	?cleanup_openCL@@YAHXZ				; cleanup_openCL
pdata	SEGMENT
$pdata$?cleanup_openCL@@YAHXZ DD imagerel $LN9
	DD	imagerel $LN9+380
	DD	imagerel $unwind$?cleanup_openCL@@YAHXZ
pdata	ENDS
xdata	SEGMENT
$unwind$?cleanup_openCL@@YAHXZ DD 021501H
	DD	070025206H
; Function compile flags: /Odtp /RTCsu
xdata	ENDS
_TEXT	SEGMENT
status$ = 32
?cleanup_openCL@@YAHXZ PROC				; cleanup_openCL
; File c:\users\mark\documents\visual studio projects\raytracing projects\opencl_raytracer\opencl_raytracer\raytracer\opencl raytracer\raytracer_opencl.c
; Line 652
$LN9:
	push	rdi
	sub	rsp, 48					; 00000030H
	mov	rdi, rsp
	mov	ecx, 12
	mov	eax, -858993460				; ccccccccH
	rep stosd
; Line 655
	mov	rcx, QWORD PTR ?raytracer_kernel@@3PEAU_cl_kernel@@EA ; raytracer_kernel
	call	QWORD PTR __imp_clReleaseKernel
	mov	DWORD PTR status$[rsp], eax
; Line 656
	cmp	DWORD PTR status$[rsp], 0
	je	SHORT $LN6@cleanup_op
; Line 658
	call	QWORD PTR __imp___iob_func
	add	rax, 96					; 00000060H
	lea	rdx, OFFSET FLAT:$SG-716
	mov	rcx, rax
	call	QWORD PTR __imp_fprintf
; Line 659
	mov	eax, 1
	jmp	$LN7@cleanup_op
$LN6@cleanup_op:
; Line 661
	mov	rcx, QWORD PTR ?program@@3PEAU_cl_program@@EA ; program
	call	QWORD PTR __imp_clReleaseProgram
	mov	DWORD PTR status$[rsp], eax
; Line 662
	cmp	DWORD PTR status$[rsp], 0
	je	SHORT $LN5@cleanup_op
; Line 664
	call	QWORD PTR __imp___iob_func
	add	rax, 96					; 00000060H
	lea	rdx, OFFSET FLAT:$SG-717
	mov	rcx, rax
	call	QWORD PTR __imp_fprintf
; Line 665
	mov	eax, 1
	jmp	$LN7@cleanup_op
$LN5@cleanup_op:
; Line 667
	mov	rcx, QWORD PTR ?primitive_buffer@@3PEAU_cl_mem@@EA ; primitive_buffer
	call	QWORD PTR __imp_clReleaseMemObject
	mov	DWORD PTR status$[rsp], eax
; Line 668
	cmp	DWORD PTR status$[rsp], 0
	je	SHORT $LN4@cleanup_op
; Line 670
	call	QWORD PTR __imp___iob_func
	add	rax, 96					; 00000060H
	lea	rdx, OFFSET FLAT:$SG-718
	mov	rcx, rax
	call	QWORD PTR __imp_fprintf
; Line 671
	mov	eax, 1
	jmp	$LN7@cleanup_op
$LN4@cleanup_op:
; Line 673
	mov	rcx, QWORD PTR ?pixel_buffer@@3PEAU_cl_mem@@EA ; pixel_buffer
	call	QWORD PTR __imp_clReleaseMemObject
	mov	DWORD PTR status$[rsp], eax
; Line 674
	cmp	DWORD PTR status$[rsp], 0
	je	SHORT $LN3@cleanup_op
; Line 676
	call	QWORD PTR __imp___iob_func
	add	rax, 96					; 00000060H
	lea	rdx, OFFSET FLAT:$SG-719
	mov	rcx, rax
	call	QWORD PTR __imp_fprintf
; Line 677
	mov	eax, 1
	jmp	SHORT $LN7@cleanup_op
$LN3@cleanup_op:
; Line 679
	mov	rcx, QWORD PTR ?command_queue@@3PEAU_cl_command_queue@@EA ; command_queue
	call	QWORD PTR __imp_clReleaseCommandQueue
	mov	DWORD PTR status$[rsp], eax
; Line 680
	cmp	DWORD PTR status$[rsp], 0
	je	SHORT $LN2@cleanup_op
; Line 682
	call	QWORD PTR __imp___iob_func
	add	rax, 96					; 00000060H
	lea	rdx, OFFSET FLAT:$SG-720
	mov	rcx, rax
	call	QWORD PTR __imp_fprintf
; Line 683
	mov	eax, 1
	jmp	SHORT $LN7@cleanup_op
$LN2@cleanup_op:
; Line 685
	mov	rcx, QWORD PTR ?context@@3PEAU_cl_context@@EA ; context
	call	QWORD PTR __imp_clReleaseContext
	mov	DWORD PTR status$[rsp], eax
; Line 686
	cmp	DWORD PTR status$[rsp], 0
	je	SHORT $LN1@cleanup_op
; Line 688
	call	QWORD PTR __imp___iob_func
	add	rax, 96					; 00000060H
	lea	rdx, OFFSET FLAT:$SG-721
	mov	rcx, rax
	call	QWORD PTR __imp_fprintf
; Line 689
	mov	eax, 1
	jmp	SHORT $LN7@cleanup_op
$LN1@cleanup_op:
; Line 692
	xor	eax, eax
$LN7@cleanup_op:
; Line 693
	add	rsp, 48					; 00000030H
	pop	rdi
	ret	0
?cleanup_openCL@@YAHXZ ENDP				; cleanup_openCL
_TEXT	ENDS
PUBLIC	__$ArrayPad$
PUBLIC	?run_openCL_kernel@@YAHHHMMMMMHHPEATcl_uchar4@@@Z ; run_openCL_kernel
EXTRN	__GSHandlerCheck:PROC
EXTRN	__security_cookie:QWORD
EXTRN	_RTC_CheckStackVars:PROC
pdata	SEGMENT
$pdata$?run_openCL_kernel@@YAHHHMMMMMHHPEATcl_uchar4@@@Z DD imagerel $LN26
	DD	imagerel $LN26+2018
	DD	imagerel $unwind$?run_openCL_kernel@@YAHHHMMMMMHHPEATcl_uchar4@@@Z
pdata	ENDS
xdata	SEGMENT
$unwind$?run_openCL_kernel@@YAHHHMMMMMHHPEATcl_uchar4@@@Z DD 034419H
	DD	02c011cH
	DD	07015H
	DD	imagerel __GSHandlerCheck
	DD	0150H
	ORG $+4
?run_openCL_kernel@@YAHHHMMMMMHHPEATcl_uchar4@@@Z$rtcName$0 DB 06dH ; run_openCL_kernel
	DB	061H
	DB	078H
	DB	044H
	DB	069H
	DB	06dH
	DB	073H
	DB	00H
?run_openCL_kernel@@YAHHHMMMMMHHPEATcl_uchar4@@@Z$rtcName$1 DB 065H ; run_openCL_kernel
	DB	076H
	DB	065H
	DB	06eH
	DB	074H
	DB	073H
	DB	00H
	ORG $+1
?run_openCL_kernel@@YAHHHMMMMMHHPEATcl_uchar4@@@Z$rtcName$2 DB 067H ; run_openCL_kernel
	DB	06cH
	DB	06fH
	DB	062H
	DB	061H
	DB	06cH
	DB	054H
	DB	068H
	DB	072H
	DB	065H
	DB	061H
	DB	064H
	DB	073H
	DB	00H
	ORG $+2
?run_openCL_kernel@@YAHHHMMMMMHHPEATcl_uchar4@@@Z$rtcName$3 DB 06cH ; run_openCL_kernel
	DB	06fH
	DB	063H
	DB	061H
	DB	06cH
	DB	054H
	DB	068H
	DB	072H
	DB	065H
	DB	061H
	DB	064H
	DB	073H
	DB	00H
	ORG $+3
?run_openCL_kernel@@YAHHHMMMMMHHPEATcl_uchar4@@@Z$rtcName$4 DB 06dH ; run_openCL_kernel
	DB	061H
	DB	078H
	DB	057H
	DB	06fH
	DB	072H
	DB	06bH
	DB	047H
	DB	072H
	DB	06fH
	DB	075H
	DB	070H
	DB	053H
	DB	069H
	DB	07aH
	DB	065H
	DB	00H
	ORG $+7
?run_openCL_kernel@@YAHHHMMMMMHHPEATcl_uchar4@@@Z$rtcName$5 DB 06dH ; run_openCL_kernel
	DB	061H
	DB	078H
	DB	057H
	DB	06fH
	DB	072H
	DB	06bH
	DB	049H
	DB	074H
	DB	065H
	DB	06dH
	DB	053H
	DB	069H
	DB	07aH
	DB	065H
	DB	073H
	DB	00H
	ORG $+7
?run_openCL_kernel@@YAHHHMMMMMHHPEATcl_uchar4@@@Z$rtcVarDesc DD 0118H ; run_openCL_kernel
	DD	018H
	DQ	FLAT:?run_openCL_kernel@@YAHHHMMMMMHHPEATcl_uchar4@@@Z$rtcName$5
	DD	0f8H
	DD	08H
	DQ	FLAT:?run_openCL_kernel@@YAHHHMMMMMHHPEATcl_uchar4@@@Z$rtcName$4
	DD	0d8H
	DD	08H
	DQ	FLAT:?run_openCL_kernel@@YAHHHMMMMMHHPEATcl_uchar4@@@Z$rtcName$3
	DD	0b8H
	DD	08H
	DQ	FLAT:?run_openCL_kernel@@YAHHHMMMMMHHPEATcl_uchar4@@@Z$rtcName$2
	DD	088H
	DD	010H
	DQ	FLAT:?run_openCL_kernel@@YAHHHMMMMMHHPEATcl_uchar4@@@Z$rtcName$1
	DD	064H
	DD	04H
	DQ	FLAT:?run_openCL_kernel@@YAHHHMMMMMHHPEATcl_uchar4@@@Z$rtcName$0
	ORG $+288
?run_openCL_kernel@@YAHHHMMMMMHHPEATcl_uchar4@@@Z$rtcFrameData DD 06H ; run_openCL_kernel
	DD	00H
	DQ	FLAT:?run_openCL_kernel@@YAHHHMMMMMHHPEATcl_uchar4@@@Z$rtcVarDesc
; Function compile flags: /Odtp /RTCsu
_TEXT	SEGMENT
status$ = 80
maxDims$ = 100
events$ = 136
globalThreads$ = 184
localThreads$ = 216
maxWorkGroupSize$ = 248
maxWorkItemSizes$ = 280
tv133 = 320
tv136 = 328
__$ArrayPad$ = 336
width$ = 368
height$ = 376
camera_x$ = 384
camera_y$ = 392
camera_z$ = 400
viewport_width$ = 408
viewport_height$ = 416
workgroup_size$ = 424
n_primitives$ = 432
out_pixels$ = 440
?run_openCL_kernel@@YAHHHMMMMMHHPEATcl_uchar4@@@Z PROC	; run_openCL_kernel
; Line 373
$LN26:
	movss	DWORD PTR [rsp+32], xmm3
	movss	DWORD PTR [rsp+24], xmm2
	mov	DWORD PTR [rsp+16], edx
	mov	DWORD PTR [rsp+8], ecx
	push	rdi
	sub	rsp, 352				; 00000160H
	mov	rdi, rsp
	mov	ecx, 88					; 00000058H
	mov	eax, -858993460				; ccccccccH
	rep stosd
	mov	ecx, DWORD PTR [rsp+368]
	mov	rax, QWORD PTR __security_cookie
	xor	rax, rsp
	mov	QWORD PTR __$ArrayPad$[rsp], rax
; Line 392
	mov	QWORD PTR [rsp+32], 0
	lea	r9, QWORD PTR maxWorkGroupSize$[rsp]
	mov	r8d, 8
	mov	edx, 4100				; 00001004H
	mov	rax, QWORD PTR ?devices@@3PEAPEAU_cl_device_id@@EA ; devices
	mov	rcx, QWORD PTR [rax]
	call	QWORD PTR __imp_clGetDeviceInfo
	mov	DWORD PTR status$[rsp], eax
; Line 393
	cmp	DWORD PTR status$[rsp], 0
	je	SHORT $LN23@run_openCL
; Line 395
	call	QWORD PTR __imp___iob_func
	add	rax, 96					; 00000060H
	lea	rdx, OFFSET FLAT:$SG-695
	mov	rcx, rax
	call	QWORD PTR __imp_fprintf
; Line 396
	mov	eax, 1
	jmp	$LN24@run_openCL
$LN23@run_openCL:
; Line 404
	mov	QWORD PTR [rsp+32], 0
	lea	r9, QWORD PTR maxDims$[rsp]
	mov	r8d, 4
	mov	edx, 4099				; 00001003H
	mov	rax, QWORD PTR ?devices@@3PEAPEAU_cl_device_id@@EA ; devices
	mov	rcx, QWORD PTR [rax]
	call	QWORD PTR __imp_clGetDeviceInfo
	mov	DWORD PTR status$[rsp], eax
; Line 405
	cmp	DWORD PTR status$[rsp], 0
	je	SHORT $LN22@run_openCL
; Line 407
	call	QWORD PTR __imp___iob_func
	add	rax, 96					; 00000060H
	lea	rdx, OFFSET FLAT:$SG-696
	mov	rcx, rax
	call	QWORD PTR __imp_fprintf
; Line 408
	mov	eax, 1
	jmp	$LN24@run_openCL
$LN22@run_openCL:
; Line 416
	mov	eax, DWORD PTR maxDims$[rsp]
	shl	rax, 3
	mov	QWORD PTR [rsp+32], 0
	lea	r9, QWORD PTR maxWorkItemSizes$[rsp]
	mov	r8, rax
	mov	edx, 4101				; 00001005H
	mov	rax, QWORD PTR ?devices@@3PEAPEAU_cl_device_id@@EA ; devices
	mov	rcx, QWORD PTR [rax]
	call	QWORD PTR __imp_clGetDeviceInfo
	mov	DWORD PTR status$[rsp], eax
; Line 417
	cmp	DWORD PTR status$[rsp], 0
	je	SHORT $LN21@run_openCL
; Line 419
	call	QWORD PTR __imp___iob_func
	add	rax, 96					; 00000060H
	lea	rdx, OFFSET FLAT:$SG-697
	mov	rcx, rax
	call	QWORD PTR __imp_fprintf
; Line 420
	mov	eax, 1
	jmp	$LN24@run_openCL
$LN21@run_openCL:
; Line 423
	mov	eax, DWORD PTR width$[rsp]
	imul	eax, DWORD PTR height$[rsp]
	cdqe
	mov	QWORD PTR globalThreads$[rsp], rax
; Line 425
	movsxd	rax, DWORD PTR workgroup_size$[rsp]
	mov	QWORD PTR tv133[rsp], rax
	xor	edx, edx
	mov	rax, QWORD PTR globalThreads$[rsp]
	mov	rcx, QWORD PTR tv133[rsp]
	div	rcx
	mov	rax, rdx
	test	rax, rax
	je	SHORT $LN20@run_openCL
; Line 426
	movsxd	rax, DWORD PTR workgroup_size$[rsp]
	mov	QWORD PTR tv136[rsp], rax
	xor	edx, edx
	mov	rax, QWORD PTR globalThreads$[rsp]
	mov	rcx, QWORD PTR tv136[rsp]
	div	rcx
	inc	rax
	movsxd	rcx, DWORD PTR workgroup_size$[rsp]
	imul	rax, rcx
	mov	QWORD PTR globalThreads$[rsp], rax
$LN20@run_openCL:
; Line 428
	movsxd	rax, DWORD PTR workgroup_size$[rsp]
	mov	QWORD PTR localThreads$[rsp], rax
; Line 431
	mov	rax, QWORD PTR maxWorkGroupSize$[rsp]
	cmp	QWORD PTR localThreads$[rsp], rax
	ja	SHORT $LN18@run_openCL
	mov	rax, QWORD PTR maxWorkItemSizes$[rsp]
	cmp	QWORD PTR localThreads$[rsp], rax
	jbe	SHORT $LN19@run_openCL
$LN18@run_openCL:
; Line 433
	call	QWORD PTR __imp___iob_func
	add	rax, 96					; 00000060H
	lea	rdx, OFFSET FLAT:$SG-698
	mov	rcx, rax
	call	QWORD PTR __imp_fprintf
; Line 434
	mov	eax, 1
	jmp	$LN24@run_openCL
$LN19@run_openCL:
; Line 443
	lea	r9, OFFSET FLAT:?pixel_buffer@@3PEAU_cl_mem@@EA ; pixel_buffer
	mov	r8d, 8
	xor	edx, edx
	mov	rcx, QWORD PTR ?raytracer_kernel@@3PEAU_cl_kernel@@EA ; raytracer_kernel
	call	QWORD PTR __imp_clSetKernelArg
	mov	DWORD PTR status$[rsp], eax
; Line 444
	cmp	DWORD PTR status$[rsp], 0
	je	SHORT $LN17@run_openCL
; Line 446
	call	QWORD PTR __imp___iob_func
	add	rax, 96					; 00000060H
	lea	rdx, OFFSET FLAT:$SG-699
	mov	rcx, rax
	call	QWORD PTR __imp_fprintf
; Line 447
	mov	eax, 1
	jmp	$LN24@run_openCL
$LN17@run_openCL:
; Line 455
	lea	r9, QWORD PTR width$[rsp]
	mov	r8d, 4
	mov	edx, 1
	mov	rcx, QWORD PTR ?raytracer_kernel@@3PEAU_cl_kernel@@EA ; raytracer_kernel
	call	QWORD PTR __imp_clSetKernelArg
	mov	DWORD PTR status$[rsp], eax
; Line 456
	cmp	DWORD PTR status$[rsp], 0
	je	SHORT $LN16@run_openCL
; Line 458
	call	QWORD PTR __imp___iob_func
	add	rax, 96					; 00000060H
	lea	rdx, OFFSET FLAT:$SG-700
	mov	rcx, rax
	call	QWORD PTR __imp_fprintf
; Line 459
	mov	eax, 1
	jmp	$LN24@run_openCL
$LN16@run_openCL:
; Line 467
	lea	r9, QWORD PTR height$[rsp]
	mov	r8d, 4
	mov	edx, 2
	mov	rcx, QWORD PTR ?raytracer_kernel@@3PEAU_cl_kernel@@EA ; raytracer_kernel
	call	QWORD PTR __imp_clSetKernelArg
	mov	DWORD PTR status$[rsp], eax
; Line 468
	cmp	DWORD PTR status$[rsp], 0
	je	SHORT $LN15@run_openCL
; Line 470
	call	QWORD PTR __imp___iob_func
	add	rax, 96					; 00000060H
	lea	rdx, OFFSET FLAT:$SG-701
	mov	rcx, rax
	call	QWORD PTR __imp_fprintf
; Line 471
	mov	eax, 1
	jmp	$LN24@run_openCL
$LN15@run_openCL:
; Line 479
	lea	r9, QWORD PTR camera_x$[rsp]
	mov	r8d, 4
	mov	edx, 3
	mov	rcx, QWORD PTR ?raytracer_kernel@@3PEAU_cl_kernel@@EA ; raytracer_kernel
	call	QWORD PTR __imp_clSetKernelArg
	mov	DWORD PTR status$[rsp], eax
; Line 480
	cmp	DWORD PTR status$[rsp], 0
	je	SHORT $LN14@run_openCL
; Line 482
	call	QWORD PTR __imp___iob_func
	add	rax, 96					; 00000060H
	mov	r8d, DWORD PTR status$[rsp]
	lea	rdx, OFFSET FLAT:$SG-702
	mov	rcx, rax
	call	QWORD PTR __imp_fprintf
; Line 483
	mov	eax, 1
	jmp	$LN24@run_openCL
$LN14@run_openCL:
; Line 490
	lea	r9, QWORD PTR camera_y$[rsp]
	mov	r8d, 4
	mov	edx, 4
	mov	rcx, QWORD PTR ?raytracer_kernel@@3PEAU_cl_kernel@@EA ; raytracer_kernel
	call	QWORD PTR __imp_clSetKernelArg
	mov	DWORD PTR status$[rsp], eax
; Line 491
	cmp	DWORD PTR status$[rsp], 0
	je	SHORT $LN13@run_openCL
; Line 493
	call	QWORD PTR __imp___iob_func
	add	rax, 96					; 00000060H
	lea	rdx, OFFSET FLAT:$SG-703
	mov	rcx, rax
	call	QWORD PTR __imp_fprintf
; Line 494
	mov	eax, 1
	jmp	$LN24@run_openCL
$LN13@run_openCL:
; Line 501
	lea	r9, QWORD PTR camera_z$[rsp]
	mov	r8d, 4
	mov	edx, 5
	mov	rcx, QWORD PTR ?raytracer_kernel@@3PEAU_cl_kernel@@EA ; raytracer_kernel
	call	QWORD PTR __imp_clSetKernelArg
	mov	DWORD PTR status$[rsp], eax
; Line 502
	cmp	DWORD PTR status$[rsp], 0
	je	SHORT $LN12@run_openCL
; Line 504
	call	QWORD PTR __imp___iob_func
	add	rax, 96					; 00000060H
	lea	rdx, OFFSET FLAT:$SG-704
	mov	rcx, rax
	call	QWORD PTR __imp_fprintf
; Line 505
	mov	eax, 1
	jmp	$LN24@run_openCL
$LN12@run_openCL:
; Line 513
	lea	r9, QWORD PTR viewport_width$[rsp]
	mov	r8d, 4
	mov	edx, 6
	mov	rcx, QWORD PTR ?raytracer_kernel@@3PEAU_cl_kernel@@EA ; raytracer_kernel
	call	QWORD PTR __imp_clSetKernelArg
	mov	DWORD PTR status$[rsp], eax
; Line 514
	cmp	DWORD PTR status$[rsp], 0
	je	SHORT $LN11@run_openCL
; Line 516
	call	QWORD PTR __imp___iob_func
	add	rax, 96					; 00000060H
	lea	rdx, OFFSET FLAT:$SG-705
	mov	rcx, rax
	call	QWORD PTR __imp_fprintf
; Line 517
	mov	eax, 1
	jmp	$LN24@run_openCL
$LN11@run_openCL:
; Line 524
	lea	r9, QWORD PTR viewport_height$[rsp]
	mov	r8d, 4
	mov	edx, 7
	mov	rcx, QWORD PTR ?raytracer_kernel@@3PEAU_cl_kernel@@EA ; raytracer_kernel
	call	QWORD PTR __imp_clSetKernelArg
	mov	DWORD PTR status$[rsp], eax
; Line 525
	cmp	DWORD PTR status$[rsp], 0
	je	SHORT $LN10@run_openCL
; Line 527
	call	QWORD PTR __imp___iob_func
	add	rax, 96					; 00000060H
	lea	rdx, OFFSET FLAT:$SG-706
	mov	rcx, rax
	call	QWORD PTR __imp_fprintf
; Line 528
	mov	eax, 1
	jmp	$LN24@run_openCL
$LN10@run_openCL:
; Line 536
	lea	r9, OFFSET FLAT:?primitive_buffer@@3PEAU_cl_mem@@EA ; primitive_buffer
	mov	r8d, 8
	mov	edx, 8
	mov	rcx, QWORD PTR ?raytracer_kernel@@3PEAU_cl_kernel@@EA ; raytracer_kernel
	call	QWORD PTR __imp_clSetKernelArg
	mov	DWORD PTR status$[rsp], eax
; Line 537
	cmp	DWORD PTR status$[rsp], 0
	je	SHORT $LN9@run_openCL
; Line 539
	call	QWORD PTR __imp___iob_func
	add	rax, 96					; 00000060H
	lea	rdx, OFFSET FLAT:$SG-707
	mov	rcx, rax
	call	QWORD PTR __imp_fprintf
; Line 540
	mov	eax, 1
	jmp	$LN24@run_openCL
$LN9@run_openCL:
; Line 548
	lea	r9, QWORD PTR n_primitives$[rsp]
	mov	r8d, 4
	mov	edx, 9
	mov	rcx, QWORD PTR ?raytracer_kernel@@3PEAU_cl_kernel@@EA ; raytracer_kernel
	call	QWORD PTR __imp_clSetKernelArg
	mov	DWORD PTR status$[rsp], eax
; Line 549
	cmp	DWORD PTR status$[rsp], 0
	je	SHORT $LN8@run_openCL
; Line 551
	call	QWORD PTR __imp___iob_func
	add	rax, 96					; 00000060H
	mov	r8d, DWORD PTR status$[rsp]
	lea	rdx, OFFSET FLAT:$SG-708
	mov	rcx, rax
	call	QWORD PTR __imp_fprintf
; Line 552
	mov	eax, 1
	jmp	$LN24@run_openCL
$LN8@run_openCL:
; Line 560
	movsxd	rax, DWORD PTR n_primitives$[rsp]
	imul	rax, 96					; 00000060H
	xor	r9d, r9d
	mov	r8, rax
	mov	edx, 10
	mov	rcx, QWORD PTR ?raytracer_kernel@@3PEAU_cl_kernel@@EA ; raytracer_kernel
	call	QWORD PTR __imp_clSetKernelArg
	mov	DWORD PTR status$[rsp], eax
; Line 562
	cmp	DWORD PTR status$[rsp], 0
	je	SHORT $LN7@run_openCL
; Line 564
	call	QWORD PTR __imp___iob_func
	add	rax, 96					; 00000060H
	mov	r8d, DWORD PTR status$[rsp]
	lea	rdx, OFFSET FLAT:$SG-709
	mov	rcx, rax
	call	QWORD PTR __imp_fprintf
; Line 565
	mov	eax, 1
	jmp	$LN24@run_openCL
$LN7@run_openCL:
; Line 579
	lea	rax, QWORD PTR events$[rsp]
	mov	QWORD PTR [rsp+64], rax
	mov	QWORD PTR [rsp+56], 0
	mov	DWORD PTR [rsp+48], 0
	lea	rax, QWORD PTR localThreads$[rsp]
	mov	QWORD PTR [rsp+40], rax
	lea	rax, QWORD PTR globalThreads$[rsp]
	mov	QWORD PTR [rsp+32], rax
	xor	r9d, r9d
	mov	r8d, 1
	mov	rdx, QWORD PTR ?raytracer_kernel@@3PEAU_cl_kernel@@EA ; raytracer_kernel
	mov	rcx, QWORD PTR ?command_queue@@3PEAU_cl_command_queue@@EA ; command_queue
	call	QWORD PTR __imp_clEnqueueNDRangeKernel
	mov	DWORD PTR status$[rsp], eax
; Line 580
	cmp	DWORD PTR status$[rsp], 0
	je	SHORT $LN6@run_openCL
; Line 584
	call	QWORD PTR __imp___iob_func
	add	rax, 96					; 00000060H
	lea	rdx, OFFSET FLAT:$SG-710
	mov	rcx, rax
	call	QWORD PTR __imp_fprintf
; Line 585
	mov	eax, 1
	jmp	$LN24@run_openCL
$LN6@run_openCL:
; Line 590
	lea	rdx, QWORD PTR events$[rsp]
	mov	ecx, 1
	call	QWORD PTR __imp_clWaitForEvents
	mov	DWORD PTR status$[rsp], eax
; Line 591
	cmp	DWORD PTR status$[rsp], 0
	je	SHORT $LN5@run_openCL
; Line 595
	call	QWORD PTR __imp___iob_func
	add	rax, 96					; 00000060H
	lea	rdx, OFFSET FLAT:$SG-711
	mov	rcx, rax
	call	QWORD PTR __imp_fprintf
; Line 596
	mov	eax, 1
	jmp	$LN24@run_openCL
$LN5@run_openCL:
; Line 599
	mov	rcx, QWORD PTR events$[rsp]
	call	QWORD PTR __imp_clReleaseEvent
	mov	DWORD PTR status$[rsp], eax
; Line 600
	cmp	DWORD PTR status$[rsp], 0
	je	SHORT $LN4@run_openCL
; Line 604
	call	QWORD PTR __imp___iob_func
	add	rax, 96					; 00000060H
	lea	rdx, OFFSET FLAT:$SG-712
	mov	rcx, rax
	call	QWORD PTR __imp_fprintf
; Line 605
	mov	eax, 1
	jmp	$LN24@run_openCL
$LN4@run_openCL:
; Line 618
	lea	rax, QWORD PTR events$[rsp+8]
	mov	ecx, DWORD PTR width$[rsp]
	imul	ecx, DWORD PTR height$[rsp]
	movsxd	rcx, ecx
	shl	rcx, 2
	mov	QWORD PTR [rsp+64], rax
	mov	QWORD PTR [rsp+56], 0
	mov	DWORD PTR [rsp+48], 0
	mov	rax, QWORD PTR out_pixels$[rsp]
	mov	QWORD PTR [rsp+40], rax
	mov	QWORD PTR [rsp+32], rcx
	xor	r9d, r9d
	mov	r8d, 1
	mov	rdx, QWORD PTR ?pixel_buffer@@3PEAU_cl_mem@@EA ; pixel_buffer
	mov	rcx, QWORD PTR ?command_queue@@3PEAU_cl_command_queue@@EA ; command_queue
	call	QWORD PTR __imp_clEnqueueReadBuffer
	mov	DWORD PTR status$[rsp], eax
; Line 620
	cmp	DWORD PTR status$[rsp], 0
	je	SHORT $LN3@run_openCL
; Line 624
	call	QWORD PTR __imp___iob_func
	add	rax, 96					; 00000060H
	lea	rdx, OFFSET FLAT:$SG-713
	mov	rcx, rax
	call	QWORD PTR __imp_fprintf
; Line 626
	mov	eax, 1
	jmp	SHORT $LN24@run_openCL
$LN3@run_openCL:
; Line 630
	lea	rax, QWORD PTR events$[rsp+8]
	mov	rdx, rax
	mov	ecx, 1
	call	QWORD PTR __imp_clWaitForEvents
	mov	DWORD PTR status$[rsp], eax
; Line 631
	cmp	DWORD PTR status$[rsp], 0
	je	SHORT $LN2@run_openCL
; Line 635
	call	QWORD PTR __imp___iob_func
	add	rax, 96					; 00000060H
	lea	rdx, OFFSET FLAT:$SG-714
	mov	rcx, rax
	call	QWORD PTR __imp_fprintf
; Line 636
	mov	eax, 1
	jmp	SHORT $LN24@run_openCL
$LN2@run_openCL:
; Line 639
	mov	rcx, QWORD PTR events$[rsp+8]
	call	QWORD PTR __imp_clReleaseEvent
	mov	DWORD PTR status$[rsp], eax
; Line 640
	cmp	DWORD PTR status$[rsp], 0
	je	SHORT $LN1@run_openCL
; Line 644
	call	QWORD PTR __imp___iob_func
	add	rax, 96					; 00000060H
	lea	rdx, OFFSET FLAT:$SG-715
	mov	rcx, rax
	call	QWORD PTR __imp_fprintf
; Line 645
	mov	eax, 1
	jmp	SHORT $LN24@run_openCL
$LN1@run_openCL:
; Line 648
	xor	eax, eax
$LN24@run_openCL:
; Line 649
	mov	rdi, rax
	mov	rcx, rsp
	lea	rdx, OFFSET FLAT:?run_openCL_kernel@@YAHHHMMMMMHHPEATcl_uchar4@@@Z$rtcFrameData
	call	_RTC_CheckStackVars
	mov	rax, rdi
	mov	rcx, QWORD PTR __$ArrayPad$[rsp]
	xor	rcx, rsp
	call	__security_check_cookie
	add	rsp, 352				; 00000160H
	pop	rdi
	ret	0
?run_openCL_kernel@@YAHHHMMMMMHHPEATcl_uchar4@@@Z ENDP	; run_openCL_kernel
_TEXT	ENDS
pdata	SEGMENT
$pdata$?read_kernel@@YAPEADPEBD@Z DD imagerel ?read_kernel@@YAPEADPEBD@Z
	DD	imagerel ?read_kernel@@YAPEADPEBD@Z+480
	DD	imagerel $unwind$?read_kernel@@YAPEADPEBD@Z
pdata	ENDS
xdata	SEGMENT
$unwind$?read_kernel@@YAPEADPEBD@Z DD 021e01H
	DD	07006720aH
; Function compile flags: /Odtp /RTCsu
xdata	ENDS
_TEXT	SEGMENT
file$ = 32
size$ = 40
src$ = 48
res$ = 56
file_name$ = 80
?read_kernel@@YAPEADPEBD@Z PROC				; read_kernel
; Line 9
	mov	QWORD PTR [rsp+8], rcx
	push	rdi
	sub	rsp, 64					; 00000040H
	mov	rdi, rsp
	mov	ecx, 16
	mov	eax, -858993460				; ccccccccH
	rep stosd
	mov	rcx, QWORD PTR [rsp+80]
; Line 11
	lea	rdx, OFFSET FLAT:$SG-654
	mov	rcx, QWORD PTR file_name$[rsp]
	call	QWORD PTR __imp_fopen
	mov	QWORD PTR file$[rsp], rax
; Line 12
	cmp	QWORD PTR file$[rsp], 0
	jne	SHORT $LN5@read_kerne
; Line 13
	call	QWORD PTR __imp___iob_func
	add	rax, 96					; 00000060H
	mov	r8, QWORD PTR file_name$[rsp]
	lea	rdx, OFFSET FLAT:$SG-655
	mov	rcx, rax
	call	QWORD PTR __imp_fprintf
; Line 14
	mov	ecx, -1
	call	QWORD PTR __imp_exit
$LN5@read_kerne:
; Line 17
	mov	r8d, 2
	xor	edx, edx
	mov	rcx, QWORD PTR file$[rsp]
	call	QWORD PTR __imp_fseek
	test	eax, eax
	je	SHORT $LN4@read_kerne
; Line 18
	call	QWORD PTR __imp___iob_func
	add	rax, 96					; 00000060H
	mov	r8, QWORD PTR file_name$[rsp]
	lea	rdx, OFFSET FLAT:$SG-656
	mov	rcx, rax
	call	QWORD PTR __imp_fprintf
; Line 19
	mov	ecx, -1
	call	QWORD PTR __imp_exit
$LN4@read_kerne:
; Line 22
	mov	rcx, QWORD PTR file$[rsp]
	call	QWORD PTR __imp_ftell
	mov	DWORD PTR size$[rsp], eax
; Line 23
	cmp	DWORD PTR size$[rsp], 0
	jne	SHORT $LN3@read_kerne
; Line 24
	call	QWORD PTR __imp___iob_func
	add	rax, 96					; 00000060H
	mov	r8, QWORD PTR file_name$[rsp]
	lea	rdx, OFFSET FLAT:$SG-657
	mov	rcx, rax
	call	QWORD PTR __imp_fprintf
; Line 25
	mov	ecx, -1
	call	QWORD PTR __imp_exit
$LN3@read_kerne:
; Line 28
	mov	rcx, QWORD PTR file$[rsp]
	call	QWORD PTR __imp_rewind
; Line 30
	movsxd	rax, DWORD PTR size$[rsp]
	inc	rax
	mov	rcx, rax
	call	QWORD PTR __imp_malloc
	mov	QWORD PTR src$[rsp], rax
; Line 31
	cmp	QWORD PTR src$[rsp], 0
	jne	SHORT $LN2@read_kerne
; Line 32
	call	QWORD PTR __imp___iob_func
	add	rax, 96					; 00000060H
	mov	r8, QWORD PTR file_name$[rsp]
	lea	rdx, OFFSET FLAT:$SG-658
	mov	rcx, rax
	call	QWORD PTR __imp_fprintf
; Line 33
	mov	ecx, -1
	call	QWORD PTR __imp_exit
$LN2@read_kerne:
; Line 36
	call	QWORD PTR __imp___iob_func
	add	rax, 96					; 00000060H
	mov	r9d, DWORD PTR size$[rsp]
	mov	r8, QWORD PTR file_name$[rsp]
	lea	rdx, OFFSET FLAT:$SG-659
	mov	rcx, rax
	call	QWORD PTR __imp_fprintf
; Line 37
	movsxd	rax, DWORD PTR size$[rsp]
	mov	r9, QWORD PTR file$[rsp]
	mov	r8, rax
	mov	edx, 1
	mov	rcx, QWORD PTR src$[rsp]
	call	QWORD PTR __imp_fread
	mov	QWORD PTR res$[rsp], rax
; Line 38
	movsxd	rax, DWORD PTR size$[rsp]
	cmp	QWORD PTR res$[rsp], rax
	je	SHORT $LN1@read_kerne
; Line 39
	call	QWORD PTR __imp___iob_func
	add	rax, 96					; 00000060H
	mov	r9, QWORD PTR res$[rsp]
	mov	r8, QWORD PTR file_name$[rsp]
	lea	rdx, OFFSET FLAT:$SG-660
	mov	rcx, rax
	call	QWORD PTR __imp_fprintf
; Line 40
	mov	ecx, -1
	call	QWORD PTR __imp_exit
$LN1@read_kerne:
; Line 42
	movsxd	rax, DWORD PTR size$[rsp]
	mov	rcx, QWORD PTR src$[rsp]
	mov	BYTE PTR [rcx+rax], 0
; Line 44
	mov	rcx, QWORD PTR file$[rsp]
	call	QWORD PTR __imp_fclose
; Line 46
	mov	rax, QWORD PTR src$[rsp]
$LN7@read_kerne:
; Line 47
	add	rsp, 64					; 00000040H
	pop	rdi
	ret	0
?read_kernel@@YAPEADPEBD@Z ENDP				; read_kernel
PUBLIC	__$ArrayPad$
PUBLIC	?initialize_openCL@@YAHHHHPEADPEAUPrimitive@@HPEATcl_uchar4@@H@Z ; initialize_openCL
pdata	SEGMENT
$pdata$?initialize_openCL@@YAHHHHPEADPEAUPrimitive@@HPEATcl_uchar4@@H@Z DD imagerel $LN38
	DD	imagerel $LN38+3003
	DD	imagerel $unwind$?initialize_openCL@@YAHHHHPEADPEAUPrimitive@@HPEATcl_uchar4@@H@Z
pdata	ENDS
xdata	SEGMENT
$unwind$?initialize_openCL@@YAHHHHPEADPEAUPrimitive@@HPEATcl_uchar4@@H@Z DD 034219H
	DD	074011aH
	DD	07013H
	DD	imagerel __GSHandlerCheck
	DD	0390H
?initialize_openCL@@YAHHHHPEADPEAUPrimitive@@HPEATcl_uchar4@@H@Z$rtcName$0 DB 073H ; initialize_openCL
	DB	074H
	DB	061H
	DB	074H
	DB	075H
	DB	073H
	DB	00H
	ORG $+1
?initialize_openCL@@YAHHHHPEADPEAUPrimitive@@HPEATcl_uchar4@@H@Z$rtcName$1 DB 064H ; initialize_openCL
	DB	065H
	DB	076H
	DB	069H
	DB	063H
	DB	065H
	DB	04cH
	DB	069H
	DB	073H
	DB	074H
	DB	053H
	DB	069H
	DB	07aH
	DB	065H
	DB	00H
	ORG $+1
?initialize_openCL@@YAHHHHPEADPEAUPrimitive@@HPEATcl_uchar4@@H@Z$rtcName$2 DB 06eH ; initialize_openCL
	DB	075H
	DB	06dH
	DB	050H
	DB	06cH
	DB	061H
	DB	074H
	DB	066H
	DB	06fH
	DB	072H
	DB	06dH
	DB	073H
	DB	00H
	ORG $+3
?initialize_openCL@@YAHHHHPEADPEAUPrimitive@@HPEATcl_uchar4@@H@Z$rtcName$3 DB 070H ; initialize_openCL
	DB	062H
	DB	075H
	DB	066H
	DB	066H
	DB	00H
	ORG $+2
?initialize_openCL@@YAHHHHPEADPEAUPrimitive@@HPEATcl_uchar4@@H@Z$rtcName$4 DB 063H ; initialize_openCL
	DB	070H
	DB	073H
	DB	00H
?initialize_openCL@@YAHHHHPEADPEAUPrimitive@@HPEATcl_uchar4@@H@Z$rtcName$5 DB 074H ; initialize_openCL
	DB	079H
	DB	070H
	DB	065H
	DB	00H
	ORG $+3
?initialize_openCL@@YAHHHHPEADPEAUPrimitive@@HPEATcl_uchar4@@H@Z$rtcName$6 DB 062H ; initialize_openCL
	DB	075H
	DB	066H
	DB	00H
?initialize_openCL@@YAHHHHPEADPEAUPrimitive@@HPEATcl_uchar4@@H@Z$rtcName$7 DB 075H ; initialize_openCL
	DB	06eH
	DB	069H
	DB	074H
	DB	073H
	DB	00H
	ORG $+2
?initialize_openCL@@YAHHHHPEADPEAUPrimitive@@HPEATcl_uchar4@@H@Z$rtcName$8 DB 067H ; initialize_openCL
	DB	073H
	DB	069H
	DB	07aH
	DB	065H
	DB	00H
	ORG $+2
?initialize_openCL@@YAHHHHPEADPEAUPrimitive@@HPEATcl_uchar4@@H@Z$rtcName$9 DB 073H ; initialize_openCL
	DB	06fH
	DB	075H
	DB	072H
	DB	063H
	DB	065H
	DB	00H
	ORG $+1
?initialize_openCL@@YAHHHHPEADPEAUPrimitive@@HPEATcl_uchar4@@H@Z$rtcName$10 DB 073H ; initialize_openCL
	DB	06fH
	DB	075H
	DB	072H
	DB	063H
	DB	065H
	DB	053H
	DB	069H
	DB	07aH
	DB	065H
	DB	00H
	ORG $+1
?initialize_openCL@@YAHHHHPEADPEAUPrimitive@@HPEATcl_uchar4@@H@Z$rtcName$11 DB 06cH ; initialize_openCL
	DB	065H
	DB	06eH
	DB	00H
	ORG $+8
?initialize_openCL@@YAHHHHPEADPEAUPrimitive@@HPEATcl_uchar4@@H@Z$rtcVarDesc DD 0348H ; initialize_openCL
	DD	08H
	DQ	FLAT:?initialize_openCL@@YAHHHHPEADPEAUPrimitive@@HPEATcl_uchar4@@H@Z$rtcName$11
	DD	0328H
	DD	08H
	DQ	FLAT:?initialize_openCL@@YAHHHHPEADPEAUPrimitive@@HPEATcl_uchar4@@H@Z$rtcName$10
	DD	0308H
	DD	08H
	DQ	FLAT:?initialize_openCL@@YAHHHHPEADPEAUPrimitive@@HPEATcl_uchar4@@H@Z$rtcName$9
	DD	02e8H
	DD	08H
	DQ	FLAT:?initialize_openCL@@YAHHHHPEADPEAUPrimitive@@HPEATcl_uchar4@@H@Z$rtcName$8
	DD	02c4H
	DD	04H
	DQ	FLAT:?initialize_openCL@@YAHHHHPEADPEAUPrimitive@@HPEATcl_uchar4@@H@Z$rtcName$7
	DD	01b0H
	DD	0100H
	DQ	FLAT:?initialize_openCL@@YAHHHHPEADPEAUPrimitive@@HPEATcl_uchar4@@H@Z$rtcName$6
	DD	0188H
	DD	08H
	DQ	FLAT:?initialize_openCL@@YAHHHHPEADPEAUPrimitive@@HPEATcl_uchar4@@H@Z$rtcName$5
	DD	0158H
	DD	018H
	DQ	FLAT:?initialize_openCL@@YAHHHHPEADPEAUPrimitive@@HPEATcl_uchar4@@H@Z$rtcName$4
	DD	0d0H
	DD	064H
	DQ	FLAT:?initialize_openCL@@YAHHHHPEADPEAUPrimitive@@HPEATcl_uchar4@@H@Z$rtcName$3
	DD	094H
	DD	04H
	DQ	FLAT:?initialize_openCL@@YAHHHHPEADPEAUPrimitive@@HPEATcl_uchar4@@H@Z$rtcName$2
	DD	078H
	DD	08H
	DQ	FLAT:?initialize_openCL@@YAHHHHPEADPEAUPrimitive@@HPEATcl_uchar4@@H@Z$rtcName$1
	DD	054H
	DD	04H
	DQ	FLAT:?initialize_openCL@@YAHHHHPEADPEAUPrimitive@@HPEATcl_uchar4@@H@Z$rtcName$0
	ORG $+576
?initialize_openCL@@YAHHHHPEADPEAUPrimitive@@HPEATcl_uchar4@@H@Z$rtcFrameData DD 0cH ; initialize_openCL
	DD	00H
	DQ	FLAT:?initialize_openCL@@YAHHHHPEADPEAUPrimitive@@HPEATcl_uchar4@@H@Z$rtcVarDesc
; Function compile flags: /Odtp /RTCsu
_TEXT	SEGMENT
status$ = 84
deviceListSize$ = 120
numPlatforms$ = 148
platform$ = 168
platforms$6570 = 176
i$6575 = 184
pbuff$6579 = 208
cps$ = 344
i$6599 = 372
type$6604 = 392
stype$6608 = 408
buf$6624 = 432
units$6629 = 708
gsize$6634 = 744
filename$ = 760
source$ = 776
sourceSize$ = 808
len$6662 = 840
buffer$6663 = 856
$T84632 = 872
$T84633 = 880
tv75 = 888
tv202 = 896
tv221 = 904
__$ArrayPad$ = 912
deviceType$ = 944
width$ = 952
height$ = 960
defines$ = 968
primitive_list$ = 976
n_primitives$ = 984
out_pixels$ = 992
ocl_plat$ = 1000
?initialize_openCL@@YAHHHHPEADPEAUPrimitive@@HPEATcl_uchar4@@H@Z PROC ; initialize_openCL
; Line 50
$LN38:
	mov	QWORD PTR [rsp+32], r9
	mov	DWORD PTR [rsp+24], r8d
	mov	DWORD PTR [rsp+16], edx
	mov	DWORD PTR [rsp+8], ecx
	push	rdi
	sub	rsp, 928				; 000003a0H
	mov	rdi, rsp
	mov	ecx, 232				; 000000e8H
	mov	eax, -858993460				; ccccccccH
	rep stosd
	mov	ecx, DWORD PTR [rsp+944]
	mov	rax, QWORD PTR __security_cookie
	xor	rax, rsp
	mov	QWORD PTR __$ArrayPad$[rsp], rax
; Line 51
	mov	DWORD PTR status$[rsp], 0
; Line 60
	mov	QWORD PTR platform$[rsp], 0
; Line 61
	lea	r8, QWORD PTR numPlatforms$[rsp]
	xor	edx, edx
	xor	ecx, ecx
	call	QWORD PTR __imp_clGetPlatformIDs
	mov	DWORD PTR status$[rsp], eax
; Line 62
	cmp	DWORD PTR status$[rsp], 0
	je	SHORT $LN35@initialize
; Line 64
	call	QWORD PTR __imp___iob_func
	add	rax, 96					; 00000060H
	lea	rdx, OFFSET FLAT:$SG-661
	mov	rcx, rax
	call	QWORD PTR __imp_fprintf
; Line 65
	mov	eax, 1
	jmp	$LN36@initialize
$LN35@initialize:
; Line 68
	cmp	DWORD PTR numPlatforms$[rsp], 0
	jbe	$LN34@initialize
; Line 70
	mov	eax, DWORD PTR numPlatforms$[rsp]
	mov	QWORD PTR tv75[rsp], rax
	mov	eax, 8
	mov	rcx, QWORD PTR tv75[rsp]
	mul	rcx
	mov	rcx, -1
	cmovo	rax, rcx
	mov	rcx, rax
	call	QWORD PTR __imp_??2@YAPEAX_K@Z
	mov	QWORD PTR $T84632[rsp], rax
	mov	rax, QWORD PTR $T84632[rsp]
	mov	QWORD PTR platforms$6570[rsp], rax
; Line 71
	xor	r8d, r8d
	mov	rdx, QWORD PTR platforms$6570[rsp]
	mov	ecx, DWORD PTR numPlatforms$[rsp]
	call	QWORD PTR __imp_clGetPlatformIDs
	mov	DWORD PTR status$[rsp], eax
; Line 72
	cmp	DWORD PTR status$[rsp], 0
	je	SHORT $LN33@initialize
; Line 74
	call	QWORD PTR __imp___iob_func
	add	rax, 96					; 00000060H
	lea	rdx, OFFSET FLAT:$SG-662
	mov	rcx, rax
	call	QWORD PTR __imp_fprintf
; Line 75
	mov	eax, 1
	jmp	$LN36@initialize
$LN33@initialize:
; Line 77
	mov	DWORD PTR i$6575[rsp], 0
	jmp	SHORT $LN32@initialize
$LN31@initialize:
	mov	eax, DWORD PTR i$6575[rsp]
	inc	eax
	mov	DWORD PTR i$6575[rsp], eax
$LN32@initialize:
	mov	eax, DWORD PTR numPlatforms$[rsp]
	cmp	DWORD PTR i$6575[rsp], eax
	jae	$LN30@initialize
; Line 85
	mov	eax, DWORD PTR i$6575[rsp]
	mov	QWORD PTR [rsp+32], 0
	lea	r9, QWORD PTR pbuff$6579[rsp]
	mov	r8d, 100				; 00000064H
	mov	edx, 2307				; 00000903H
	mov	rcx, QWORD PTR platforms$6570[rsp]
	mov	rcx, QWORD PTR [rcx+rax*8]
	call	QWORD PTR __imp_clGetPlatformInfo
	mov	DWORD PTR status$[rsp], eax
; Line 86
	cmp	DWORD PTR status$[rsp], 0
	je	SHORT $LN29@initialize
; Line 88
	call	QWORD PTR __imp___iob_func
	add	rax, 96					; 00000060H
	lea	rdx, OFFSET FLAT:$SG-663
	mov	rcx, rax
	call	QWORD PTR __imp_fprintf
; Line 89
	mov	eax, 1
	jmp	$LN36@initialize
$LN29@initialize:
; Line 93
	call	QWORD PTR __imp___iob_func
	add	rax, 96					; 00000060H
	lea	r9, QWORD PTR pbuff$6579[rsp]
	mov	r8d, DWORD PTR i$6575[rsp]
	lea	rdx, OFFSET FLAT:$SG-664
	mov	rcx, rax
	call	QWORD PTR __imp_fprintf
; Line 96
	mov	eax, DWORD PTR i$6575[rsp]
	mov	rcx, QWORD PTR platforms$6570[rsp]
	mov	rax, QWORD PTR [rcx+rax*8]
	mov	QWORD PTR platform$[rsp], rax
; Line 97
	mov	eax, DWORD PTR ocl_plat$[rsp]
	cmp	DWORD PTR i$6575[rsp], eax
	jne	SHORT $LN28@initialize
; Line 99
	call	QWORD PTR __imp___iob_func
	add	rax, 96					; 00000060H
	mov	r8d, DWORD PTR i$6575[rsp]
	lea	rdx, OFFSET FLAT:$SG-665
	mov	rcx, rax
	call	QWORD PTR __imp_fprintf
; Line 100
	jmp	SHORT $LN30@initialize
$LN28@initialize:
; Line 102
	jmp	$LN31@initialize
$LN30@initialize:
; Line 103
	mov	rax, QWORD PTR platforms$6570[rsp]
	mov	QWORD PTR $T84633[rsp], rax
	mov	rcx, QWORD PTR $T84633[rsp]
	call	QWORD PTR __imp_??3@YAXPEAX@Z
$LN34@initialize:
; Line 106
	cmp	QWORD PTR platform$[rsp], 0
	jne	SHORT $LN27@initialize
; Line 108
	call	QWORD PTR __imp___iob_func
	add	rax, 96					; 00000060H
	lea	rdx, OFFSET FLAT:$SG-666
	mov	rcx, rax
	call	QWORD PTR __imp_fprintf
; Line 109
	mov	eax, 1
	jmp	$LN36@initialize
$LN27@initialize:
; Line 115
	mov	QWORD PTR cps$[rsp], 4228		; 00001084H
	mov	rax, QWORD PTR platform$[rsp]
	mov	QWORD PTR cps$[rsp+8], rax
	mov	QWORD PTR cps$[rsp+16], 0
; Line 124
	movsxd	rax, DWORD PTR deviceType$[rsp]
	lea	rcx, QWORD PTR status$[rsp]
	mov	QWORD PTR [rsp+32], rcx
	xor	r9d, r9d
	xor	r8d, r8d
	mov	rdx, rax
	lea	rcx, QWORD PTR cps$[rsp]
	call	QWORD PTR __imp_clCreateContextFromType
	mov	QWORD PTR ?context@@3PEAU_cl_context@@EA, rax ; context
; Line 125
	cmp	DWORD PTR status$[rsp], 0
	je	SHORT $LN26@initialize
; Line 127
	call	QWORD PTR __imp___iob_func
	add	rax, 96					; 00000060H
	lea	rdx, OFFSET FLAT:$SG-667
	mov	rcx, rax
	call	QWORD PTR __imp_fprintf
; Line 128
	mov	eax, 1
	jmp	$LN36@initialize
$LN26@initialize:
; Line 136
	lea	rax, QWORD PTR deviceListSize$[rsp]
	mov	QWORD PTR [rsp+32], rax
	xor	r9d, r9d
	xor	r8d, r8d
	mov	edx, 4225				; 00001081H
	mov	rcx, QWORD PTR ?context@@3PEAU_cl_context@@EA ; context
	call	QWORD PTR __imp_clGetContextInfo
	mov	DWORD PTR status$[rsp], eax
; Line 137
	cmp	DWORD PTR status$[rsp], 0
	je	SHORT $LN25@initialize
; Line 141
	call	QWORD PTR __imp___iob_func
	add	rax, 96					; 00000060H
	lea	rdx, OFFSET FLAT:$SG-668
	mov	rcx, rax
	call	QWORD PTR __imp_fprintf
; Line 142
	mov	eax, 1
	jmp	$LN36@initialize
$LN25@initialize:
; Line 148
	mov	rcx, QWORD PTR deviceListSize$[rsp]
	call	QWORD PTR __imp_malloc
	mov	QWORD PTR ?devices@@3PEAPEAU_cl_device_id@@EA, rax ; devices
; Line 149
	cmp	QWORD PTR ?devices@@3PEAPEAU_cl_device_id@@EA, 0 ; devices
	jne	SHORT $LN24@initialize
; Line 151
	call	QWORD PTR __imp___iob_func
	add	rax, 96					; 00000060H
	lea	rdx, OFFSET FLAT:$SG-669
	mov	rcx, rax
	call	QWORD PTR __imp_fprintf
; Line 152
	mov	eax, 1
	jmp	$LN36@initialize
$LN24@initialize:
; Line 161
	mov	QWORD PTR [rsp+32], 0
	mov	r9, QWORD PTR ?devices@@3PEAPEAU_cl_device_id@@EA ; devices
	mov	r8, QWORD PTR deviceListSize$[rsp]
	mov	edx, 4225				; 00001081H
	mov	rcx, QWORD PTR ?context@@3PEAU_cl_context@@EA ; context
	call	QWORD PTR __imp_clGetContextInfo
	mov	DWORD PTR status$[rsp], eax
; Line 162
	cmp	DWORD PTR status$[rsp], 0
	je	SHORT $LN23@initialize
; Line 166
	call	QWORD PTR __imp___iob_func
	add	rax, 96					; 00000060H
	lea	rdx, OFFSET FLAT:$SG-670
	mov	rcx, rax
	call	QWORD PTR __imp_fprintf
; Line 167
	mov	eax, 1
	jmp	$LN36@initialize
$LN23@initialize:
; Line 174
	mov	DWORD PTR i$6599[rsp], 0
	jmp	SHORT $LN22@initialize
$LN21@initialize:
	mov	eax, DWORD PTR i$6599[rsp]
	inc	eax
	mov	DWORD PTR i$6599[rsp], eax
$LN22@initialize:
	movsxd	rax, DWORD PTR i$6599[rsp]
	mov	QWORD PTR tv202[rsp], rax
	xor	edx, edx
	mov	rax, QWORD PTR deviceListSize$[rsp]
	mov	ecx, 8
	div	rcx
	mov	rcx, QWORD PTR tv202[rsp]
	cmp	rcx, rax
	jae	$LN20@initialize
; Line 175
	mov	QWORD PTR type$6604[rsp], 0
; Line 180
	movsxd	rax, DWORD PTR i$6599[rsp]
	mov	QWORD PTR [rsp+32], 0
	lea	r9, QWORD PTR type$6604[rsp]
	mov	r8d, 8
	mov	edx, 4096				; 00001000H
	mov	rcx, QWORD PTR ?devices@@3PEAPEAU_cl_device_id@@EA ; devices
	mov	rcx, QWORD PTR [rcx+rax*8]
	call	QWORD PTR __imp_clGetDeviceInfo
	mov	DWORD PTR status$[rsp], eax
; Line 181
	cmp	DWORD PTR status$[rsp], 0
	je	SHORT $LN19@initialize
; Line 182
	call	QWORD PTR __imp___iob_func
	add	rax, 96					; 00000060H
	mov	r8d, DWORD PTR status$[rsp]
	lea	rdx, OFFSET FLAT:$SG-671
	mov	rcx, rax
	call	QWORD PTR __imp_fprintf
; Line 183
	mov	ecx, -1
	call	QWORD PTR __imp_exit
$LN19@initialize:
; Line 187
	mov	rax, QWORD PTR type$6604[rsp]
	mov	QWORD PTR tv221[rsp], rax
	cmp	QWORD PTR tv221[rsp], 1
	je	SHORT $LN15@initialize
	cmp	QWORD PTR tv221[rsp], 2
	je	SHORT $LN14@initialize
	cmp	QWORD PTR tv221[rsp], 4
	je	SHORT $LN13@initialize
	mov	eax, -1					; ffffffffH
	cmp	QWORD PTR tv221[rsp], rax
	je	SHORT $LN16@initialize
	jmp	SHORT $LN12@initialize
$LN16@initialize:
; Line 189
	lea	rax, OFFSET FLAT:$SG-672
	mov	QWORD PTR stype$6608[rsp], rax
; Line 190
	jmp	SHORT $LN17@initialize
$LN15@initialize:
; Line 192
	lea	rax, OFFSET FLAT:$SG-673
	mov	QWORD PTR stype$6608[rsp], rax
; Line 193
	jmp	SHORT $LN17@initialize
$LN14@initialize:
; Line 195
	lea	rax, OFFSET FLAT:$SG-674
	mov	QWORD PTR stype$6608[rsp], rax
; Line 196
	jmp	SHORT $LN17@initialize
$LN13@initialize:
; Line 198
	lea	rax, OFFSET FLAT:$SG-675
	mov	QWORD PTR stype$6608[rsp], rax
; Line 199
	jmp	SHORT $LN17@initialize
$LN12@initialize:
; Line 201
	lea	rax, OFFSET FLAT:$SG-676
	mov	QWORD PTR stype$6608[rsp], rax
$LN17@initialize:
; Line 204
	call	QWORD PTR __imp___iob_func
	add	rax, 96					; 00000060H
	mov	r9, QWORD PTR stype$6608[rsp]
	mov	r8d, DWORD PTR i$6599[rsp]
	lea	rdx, OFFSET FLAT:$SG-677
	mov	rcx, rax
	call	QWORD PTR __imp_fprintf
; Line 211
	movsxd	rax, DWORD PTR i$6599[rsp]
	mov	QWORD PTR [rsp+32], 0
	lea	r9, QWORD PTR buf$6624[rsp]
	mov	r8d, 256				; 00000100H
	mov	edx, 4139				; 0000102bH
	mov	rcx, QWORD PTR ?devices@@3PEAPEAU_cl_device_id@@EA ; devices
	mov	rcx, QWORD PTR [rcx+rax*8]
	call	QWORD PTR __imp_clGetDeviceInfo
	mov	DWORD PTR status$[rsp], eax
; Line 212
	cmp	DWORD PTR status$[rsp], 0
	je	SHORT $LN11@initialize
; Line 213
	call	QWORD PTR __imp___iob_func
	add	rax, 96					; 00000060H
	mov	r8d, DWORD PTR status$[rsp]
	lea	rdx, OFFSET FLAT:$SG-678
	mov	rcx, rax
	call	QWORD PTR __imp_fprintf
; Line 214
	mov	ecx, -1
	call	QWORD PTR __imp_exit
$LN11@initialize:
; Line 217
	call	QWORD PTR __imp___iob_func
	add	rax, 96					; 00000060H
	lea	r9, QWORD PTR buf$6624[rsp]
	mov	r8d, DWORD PTR i$6599[rsp]
	lea	rdx, OFFSET FLAT:$SG-679
	mov	rcx, rax
	call	QWORD PTR __imp_fprintf
; Line 219
	mov	DWORD PTR units$6629[rsp], 0
; Line 224
	movsxd	rax, DWORD PTR i$6599[rsp]
	mov	QWORD PTR [rsp+32], 0
	lea	r9, QWORD PTR units$6629[rsp]
	mov	r8d, 4
	mov	edx, 4098				; 00001002H
	mov	rcx, QWORD PTR ?devices@@3PEAPEAU_cl_device_id@@EA ; devices
	mov	rcx, QWORD PTR [rcx+rax*8]
	call	QWORD PTR __imp_clGetDeviceInfo
	mov	DWORD PTR status$[rsp], eax
; Line 225
	cmp	DWORD PTR status$[rsp], 0
	je	SHORT $LN10@initialize
; Line 226
	call	QWORD PTR __imp___iob_func
	add	rax, 96					; 00000060H
	mov	r8d, DWORD PTR status$[rsp]
	lea	rdx, OFFSET FLAT:$SG-680
	mov	rcx, rax
	call	QWORD PTR __imp_fprintf
; Line 227
	mov	ecx, -1
	call	QWORD PTR __imp_exit
$LN10@initialize:
; Line 230
	call	QWORD PTR __imp___iob_func
	add	rax, 96					; 00000060H
	mov	r9d, DWORD PTR units$6629[rsp]
	mov	r8d, DWORD PTR i$6599[rsp]
	lea	rdx, OFFSET FLAT:$SG-681
	mov	rcx, rax
	call	QWORD PTR __imp_fprintf
; Line 232
	mov	QWORD PTR gsize$6634[rsp], 0
; Line 237
	movsxd	rax, DWORD PTR i$6599[rsp]
	mov	QWORD PTR [rsp+32], 0
	lea	r9, QWORD PTR gsize$6634[rsp]
	mov	r8d, 8
	mov	edx, 4100				; 00001004H
	mov	rcx, QWORD PTR ?devices@@3PEAPEAU_cl_device_id@@EA ; devices
	mov	rcx, QWORD PTR [rcx+rax*8]
	call	QWORD PTR __imp_clGetDeviceInfo
	mov	DWORD PTR status$[rsp], eax
; Line 238
	cmp	DWORD PTR status$[rsp], 0
	je	SHORT $LN9@initialize
; Line 239
	call	QWORD PTR __imp___iob_func
	add	rax, 96					; 00000060H
	mov	r8d, DWORD PTR status$[rsp]
	lea	rdx, OFFSET FLAT:$SG-682
	mov	rcx, rax
	call	QWORD PTR __imp_fprintf
; Line 240
	mov	ecx, -1
	call	QWORD PTR __imp_exit
$LN9@initialize:
; Line 243
	call	QWORD PTR __imp___iob_func
	add	rax, 96					; 00000060H
	mov	r9d, DWORD PTR gsize$6634[rsp]
	mov	r8d, DWORD PTR i$6599[rsp]
	lea	rdx, OFFSET FLAT:$SG-683
	mov	rcx, rax
	call	QWORD PTR __imp_fprintf
; Line 244
	jmp	$LN21@initialize
$LN20@initialize:
; Line 255
	lea	r9, QWORD PTR status$[rsp]
	xor	r8d, r8d
	mov	rax, QWORD PTR ?devices@@3PEAPEAU_cl_device_id@@EA ; devices
	mov	rdx, QWORD PTR [rax]
	mov	rcx, QWORD PTR ?context@@3PEAU_cl_context@@EA ; context
	call	QWORD PTR __imp_clCreateCommandQueue
	mov	QWORD PTR ?command_queue@@3PEAU_cl_command_queue@@EA, rax ; command_queue
; Line 256
	cmp	DWORD PTR status$[rsp], 0
	je	SHORT $LN8@initialize
; Line 258
	call	QWORD PTR __imp___iob_func
	add	rax, 96					; 00000060H
	lea	rdx, OFFSET FLAT:$SG-684
	mov	rcx, rax
	call	QWORD PTR __imp_fprintf
; Line 259
	mov	eax, 1
	jmp	$LN36@initialize
$LN8@initialize:
; Line 270
	movsxd	rax, DWORD PTR n_primitives$[rsp]
	imul	rax, 96					; 00000060H
	lea	rcx, QWORD PTR status$[rsp]
	mov	QWORD PTR [rsp+32], rcx
	xor	r9d, r9d
	mov	r8, rax
	mov	edx, 4
	mov	rcx, QWORD PTR ?context@@3PEAU_cl_context@@EA ; context
	call	QWORD PTR __imp_clCreateBuffer
	mov	QWORD PTR ?primitive_buffer@@3PEAU_cl_mem@@EA, rax ; primitive_buffer
; Line 272
	cmp	DWORD PTR status$[rsp], 0
	je	SHORT $LN7@initialize
; Line 274
	call	QWORD PTR __imp___iob_func
	add	rax, 96					; 00000060H
	mov	r8d, DWORD PTR status$[rsp]
	lea	rdx, OFFSET FLAT:$SG-685
	mov	rcx, rax
	call	QWORD PTR __imp_fprintf
; Line 275
	mov	eax, 1
	jmp	$LN36@initialize
$LN7@initialize:
; Line 287
	movsxd	rax, DWORD PTR n_primitives$[rsp]
	imul	rax, 96					; 00000060H
	mov	QWORD PTR [rsp+64], 0
	mov	QWORD PTR [rsp+56], 0
	mov	DWORD PTR [rsp+48], 0
	mov	rcx, QWORD PTR primitive_list$[rsp]
	mov	QWORD PTR [rsp+40], rcx
	mov	QWORD PTR [rsp+32], rax
	xor	r9d, r9d
	xor	r8d, r8d
	mov	rdx, QWORD PTR ?primitive_buffer@@3PEAU_cl_mem@@EA ; primitive_buffer
	mov	rcx, QWORD PTR ?command_queue@@3PEAU_cl_command_queue@@EA ; command_queue
	call	QWORD PTR __imp_clEnqueueWriteBuffer
	mov	DWORD PTR status$[rsp], eax
; Line 289
	cmp	DWORD PTR status$[rsp], 0
	je	SHORT $LN6@initialize
; Line 291
	call	QWORD PTR __imp___iob_func
	add	rax, 96					; 00000060H
	mov	r8d, DWORD PTR status$[rsp]
	lea	rdx, OFFSET FLAT:$SG-686
	mov	rcx, rax
	call	QWORD PTR __imp_fprintf
; Line 292
	mov	eax, 1
	jmp	$LN36@initialize
$LN6@initialize:
; Line 300
	movsxd	rax, DWORD PTR width$[rsp]
	shl	rax, 2
	movsxd	rcx, DWORD PTR height$[rsp]
	imul	rax, rcx
	lea	rcx, QWORD PTR status$[rsp]
	mov	QWORD PTR [rsp+32], rcx
	xor	r9d, r9d
	mov	r8, rax
	mov	edx, 2
	mov	rcx, QWORD PTR ?context@@3PEAU_cl_context@@EA ; context
	call	QWORD PTR __imp_clCreateBuffer
	mov	QWORD PTR ?pixel_buffer@@3PEAU_cl_mem@@EA, rax ; pixel_buffer
; Line 301
	cmp	DWORD PTR status$[rsp], 0
	je	SHORT $LN5@initialize
; Line 303
	call	QWORD PTR __imp___iob_func
	add	rax, 96					; 00000060H
	lea	rdx, OFFSET FLAT:$SG-687
	mov	rcx, rax
	call	QWORD PTR __imp_fprintf
; Line 304
	mov	eax, 1
	jmp	$LN36@initialize
$LN5@initialize:
; Line 316
	movsxd	rax, DWORD PTR width$[rsp]
	shl	rax, 2
	movsxd	rcx, DWORD PTR height$[rsp]
	imul	rax, rcx
	mov	QWORD PTR [rsp+64], 0
	mov	QWORD PTR [rsp+56], 0
	mov	DWORD PTR [rsp+48], 0
	mov	rcx, QWORD PTR out_pixels$[rsp]
	mov	QWORD PTR [rsp+40], rcx
	mov	QWORD PTR [rsp+32], rax
	xor	r9d, r9d
	xor	r8d, r8d
	mov	rdx, QWORD PTR ?pixel_buffer@@3PEAU_cl_mem@@EA ; pixel_buffer
	mov	rcx, QWORD PTR ?command_queue@@3PEAU_cl_command_queue@@EA ; command_queue
	call	QWORD PTR __imp_clEnqueueWriteBuffer
	mov	DWORD PTR status$[rsp], eax
; Line 318
	cmp	DWORD PTR status$[rsp], 0
	je	SHORT $LN4@initialize
; Line 320
	call	QWORD PTR __imp___iob_func
	add	rax, 96					; 00000060H
	mov	r8d, DWORD PTR status$[rsp]
	lea	rdx, OFFSET FLAT:$SG-688
	mov	rcx, rax
	call	QWORD PTR __imp_fprintf
; Line 321
	mov	eax, 1
	jmp	$LN36@initialize
$LN4@initialize:
; Line 328
	lea	rax, OFFSET FLAT:$SG-689
	mov	QWORD PTR filename$[rsp], rax
; Line 329
	mov	rcx, QWORD PTR filename$[rsp]
	call	?read_kernel@@YAPEADPEBD@Z		; read_kernel
	mov	QWORD PTR source$[rsp], rax
; Line 330
	mov	rcx, QWORD PTR source$[rsp]
	call	QWORD PTR __imp_strlen
	mov	QWORD PTR sourceSize$[rsp], rax
; Line 337
	lea	rax, QWORD PTR status$[rsp]
	mov	QWORD PTR [rsp+32], rax
	lea	r9, QWORD PTR sourceSize$[rsp]
	lea	r8, QWORD PTR source$[rsp]
	mov	edx, 1
	mov	rcx, QWORD PTR ?context@@3PEAU_cl_context@@EA ; context
	call	QWORD PTR __imp_clCreateProgramWithSource
	mov	QWORD PTR ?program@@3PEAU_cl_program@@EA, rax ; program
; Line 338
	cmp	DWORD PTR status$[rsp], 0
	je	SHORT $LN3@initialize
; Line 342
	call	QWORD PTR __imp___iob_func
	add	rax, 96					; 00000060H
	lea	rdx, OFFSET FLAT:$SG-690
	mov	rcx, rax
	call	QWORD PTR __imp_fprintf
; Line 343
	mov	eax, 1
	jmp	$LN36@initialize
$LN3@initialize:
; Line 347
	mov	QWORD PTR [rsp+40], 0
	mov	QWORD PTR [rsp+32], 0
	mov	r9, QWORD PTR defines$[rsp]
	mov	r8, QWORD PTR ?devices@@3PEAPEAU_cl_device_id@@EA ; devices
	mov	edx, 1
	mov	rcx, QWORD PTR ?program@@3PEAU_cl_program@@EA ; program
	call	QWORD PTR __imp_clBuildProgram
	mov	DWORD PTR status$[rsp], eax
; Line 348
	cmp	DWORD PTR status$[rsp], 0
	je	$LN2@initialize
; Line 350
	call	QWORD PTR __imp___iob_func
	add	rax, 96					; 00000060H
	mov	r8d, DWORD PTR status$[rsp]
	lea	rdx, OFFSET FLAT:$SG-691
	mov	rcx, rax
	call	QWORD PTR __imp_fprintf
; Line 353
	lea	rax, QWORD PTR len$6662[rsp]
	mov	QWORD PTR [rsp+40], rax
	mov	QWORD PTR [rsp+32], 0
	xor	r9d, r9d
	mov	r8d, 4483				; 00001183H
	mov	rax, QWORD PTR ?devices@@3PEAPEAU_cl_device_id@@EA ; devices
	mov	rdx, QWORD PTR [rax]
	mov	rcx, QWORD PTR ?program@@3PEAU_cl_program@@EA ; program
	call	QWORD PTR __imp_clGetProgramBuildInfo
; Line 354
	mov	rdx, QWORD PTR len$6662[rsp]
	mov	ecx, 1
	call	QWORD PTR __imp_calloc
	mov	QWORD PTR buffer$6663[rsp], rax
; Line 355
	mov	QWORD PTR [rsp+40], 0
	mov	rax, QWORD PTR buffer$6663[rsp]
	mov	QWORD PTR [rsp+32], rax
	mov	r9, QWORD PTR len$6662[rsp]
	mov	r8d, 4483				; 00001183H
	mov	rax, QWORD PTR ?devices@@3PEAPEAU_cl_device_id@@EA ; devices
	mov	rdx, QWORD PTR [rax]
	mov	rcx, QWORD PTR ?program@@3PEAU_cl_program@@EA ; program
	call	QWORD PTR __imp_clGetProgramBuildInfo
; Line 356
	call	QWORD PTR __imp___iob_func
	add	rax, 96					; 00000060H
	mov	r8, QWORD PTR buffer$6663[rsp]
	lea	rdx, OFFSET FLAT:$SG-692
	mov	rcx, rax
	call	QWORD PTR __imp_fprintf
; Line 357
	mov	eax, 1
	jmp	SHORT $LN36@initialize
$LN2@initialize:
; Line 361
	lea	r8, QWORD PTR status$[rsp]
	lea	rdx, OFFSET FLAT:$SG-693
	mov	rcx, QWORD PTR ?program@@3PEAU_cl_program@@EA ; program
	call	QWORD PTR __imp_clCreateKernel
	mov	QWORD PTR ?raytracer_kernel@@3PEAU_cl_kernel@@EA, rax ; raytracer_kernel
; Line 362
	cmp	DWORD PTR status$[rsp], 0
	je	SHORT $LN1@initialize
; Line 364
	call	QWORD PTR __imp___iob_func
	add	rax, 96					; 00000060H
	lea	rdx, OFFSET FLAT:$SG-694
	mov	rcx, rax
	call	QWORD PTR __imp_fprintf
; Line 365
	mov	eax, 1
	jmp	SHORT $LN36@initialize
$LN1@initialize:
; Line 368
	xor	eax, eax
$LN36@initialize:
$LN37@initialize:
; Line 369
	mov	rdi, rax
	mov	rcx, rsp
	lea	rdx, OFFSET FLAT:?initialize_openCL@@YAHHHHPEADPEAUPrimitive@@HPEATcl_uchar4@@H@Z$rtcFrameData
	call	_RTC_CheckStackVars
	mov	rax, rdi
	mov	rcx, QWORD PTR __$ArrayPad$[rsp]
	xor	rcx, rsp
	call	__security_check_cookie
	add	rsp, 928				; 000003a0H
	pop	rdi
	ret	0
?initialize_openCL@@YAHHHHPEADPEAUPrimitive@@HPEATcl_uchar4@@H@Z ENDP ; initialize_openCL
PUBLIC	__$ArrayPad$
PUBLIC	?do_raytrace_ocl@@YAHPEATcl_uchar4@@PEAUPrimitive@@HHHHHHHHHHHMMMMMH@Z ; do_raytrace_ocl
EXTRN	__ImageBase:BYTE
pdata	SEGMENT
$pdata$?do_raytrace_ocl@@YAHPEATcl_uchar4@@PEAUPrimitive@@HHHHHHHHHHHMMMMMH@Z DD imagerel $LN23
	DD	imagerel $LN23+916
	DD	imagerel $unwind$?do_raytrace_ocl@@YAHPEATcl_uchar4@@PEAUPrimitive@@HHHHHHHHHHHMMMMMH@Z
pdata	ENDS
xdata	SEGMENT
$unwind$?do_raytrace_ocl@@YAHPEATcl_uchar4@@PEAUPrimitive@@HHHHHHHHHHHMMMMMH@Z DD 034519H
	DD	024011cH
	DD	07015H
	DD	imagerel __GSHandlerCheck
	DD	0110H
?do_raytrace_ocl@@YAHPEATcl_uchar4@@PEAUPrimitive@@HHHHHHHHHHHMMMMMH@Z$rtcName$0 DB 064H ; do_raytrace_ocl
	DB	065H
	DB	066H
	DB	05fH
	DB	073H
	DB	074H
	DB	072H
	DB	069H
	DB	06eH
	DB	067H
	DB	00H
	ORG $+5
?do_raytrace_ocl@@YAHPEATcl_uchar4@@PEAUPrimitive@@HHHHHHHHHHHMMMMMH@Z$rtcVarDesc DD 070H ; do_raytrace_ocl
	DD	064H
	DQ	FLAT:?do_raytrace_ocl@@YAHPEATcl_uchar4@@PEAUPrimitive@@HHHHHHHHHHHMMMMMH@Z$rtcName$0
	ORG $+48
?do_raytrace_ocl@@YAHPEATcl_uchar4@@PEAUPrimitive@@HHHHHHHHHHHMMMMMH@Z$rtcFrameData DD 01H ; do_raytrace_ocl
	DD	00H
	DQ	FLAT:?do_raytrace_ocl@@YAHPEATcl_uchar4@@PEAUPrimitive@@HHHHHHHHHHHMMMMMH@Z$rtcVarDesc
; Function compile flags: /Odtp /RTCsu
_TEXT	SEGMENT
deviceType$ = 80
def_string$ = 112
fstart$ = 232
ftime$ = 240
tv68 = 256
tv162 = 264
__$ArrayPad$ = 272
out_pixels$ = 304
prim_list$ = 312
n_primitives$ = 320
use_cpu$ = 328
depth$ = 336
workgroup_size$ = 344
fast_norm$ = 352
buil_norm$ = 360
nati_sqrt$ = 368
buil_dot$ = 376
buil_len$ = 384
width$ = 392
height$ = 400
camera_x$ = 408
camera_y$ = 416
camera_z$ = 424
viewport_width$ = 432
viewport_height$ = 440
ocl_plat$ = 448
?do_raytrace_ocl@@YAHPEATcl_uchar4@@PEAUPrimitive@@HHHHHHHHHHHMMMMMH@Z PROC ; do_raytrace_ocl
; Line 698
$LN23:
	mov	DWORD PTR [rsp+32], r9d
	mov	DWORD PTR [rsp+24], r8d
	mov	QWORD PTR [rsp+16], rdx
	mov	QWORD PTR [rsp+8], rcx
	push	rdi
	sub	rsp, 288				; 00000120H
	mov	rdi, rsp
	mov	ecx, 72					; 00000048H
	mov	eax, -858993460				; ccccccccH
	rep stosd
	mov	rcx, QWORD PTR [rsp+304]
	mov	rax, QWORD PTR __security_cookie
	xor	rax, rsp
	mov	QWORD PTR __$ArrayPad$[rsp], rax
; Line 701
	cmp	DWORD PTR use_cpu$[rsp], 0
	jle	SHORT $LN19@do_raytrac
; Line 702
	mov	DWORD PTR deviceType$[rsp], 2
; Line 703
	jmp	SHORT $LN18@do_raytrac
$LN19@do_raytrac:
; Line 704
	mov	DWORD PTR deviceType$[rsp], 4
$LN18@do_raytrac:
; Line 708
	lea	rdx, OFFSET FLAT:$SG-722
	lea	rcx, QWORD PTR def_string$[rsp]
	call	QWORD PTR __imp_strcpy
; Line 710
	cmp	DWORD PTR depth$[rsp], 5
	jle	SHORT $LN17@do_raytrac
; Line 712
	call	QWORD PTR __imp___iob_func
	add	rax, 96					; 00000060H
	lea	rdx, OFFSET FLAT:$SG-723
	mov	rcx, rax
	call	QWORD PTR __imp_fprintf
; Line 713
	mov	DWORD PTR depth$[rsp], 5
$LN17@do_raytrac:
; Line 717
	mov	eax, DWORD PTR depth$[rsp]
	mov	DWORD PTR tv68[rsp], eax
	cmp	DWORD PTR tv68[rsp], 5
	ja	$LN15@do_raytrac
	movsxd	rax, DWORD PTR tv68[rsp]
	lea	rcx, OFFSET FLAT:__ImageBase
	mov	eax, DWORD PTR $LN22@do_raytrac[rcx+rax*4]
	add	rax, rcx
	jmp	rax
$LN14@do_raytrac:
; Line 720
	lea	rdx, OFFSET FLAT:$SG-724
	lea	rcx, QWORD PTR def_string$[rsp]
	call	QWORD PTR __imp_strcat
; Line 721
	jmp	SHORT $LN15@do_raytrac
$LN13@do_raytrac:
; Line 723
	lea	rdx, OFFSET FLAT:$SG-725
	lea	rcx, QWORD PTR def_string$[rsp]
	call	QWORD PTR __imp_strcat
; Line 724
	jmp	SHORT $LN15@do_raytrac
$LN12@do_raytrac:
; Line 726
	lea	rdx, OFFSET FLAT:$SG-726
	lea	rcx, QWORD PTR def_string$[rsp]
	call	QWORD PTR __imp_strcat
; Line 727
	jmp	SHORT $LN15@do_raytrac
$LN11@do_raytrac:
; Line 729
	lea	rdx, OFFSET FLAT:$SG-727
	lea	rcx, QWORD PTR def_string$[rsp]
	call	QWORD PTR __imp_strcat
; Line 730
	jmp	SHORT $LN15@do_raytrac
$LN10@do_raytrac:
; Line 732
	lea	rdx, OFFSET FLAT:$SG-728
	lea	rcx, QWORD PTR def_string$[rsp]
	call	QWORD PTR __imp_strcat
; Line 733
	jmp	SHORT $LN15@do_raytrac
$LN9@do_raytrac:
; Line 735
	lea	rdx, OFFSET FLAT:$SG-729
	lea	rcx, QWORD PTR def_string$[rsp]
	call	QWORD PTR __imp_strcat
$LN15@do_raytrac:
; Line 739
	cmp	DWORD PTR fast_norm$[rsp], 0
	jle	SHORT $LN8@do_raytrac
; Line 740
	lea	rdx, OFFSET FLAT:$SG-730
	lea	rcx, QWORD PTR def_string$[rsp]
	call	QWORD PTR __imp_strcat
$LN8@do_raytrac:
; Line 742
	cmp	DWORD PTR buil_norm$[rsp], 0
	jle	SHORT $LN7@do_raytrac
; Line 743
	lea	rdx, OFFSET FLAT:$SG-731
	lea	rcx, QWORD PTR def_string$[rsp]
	call	QWORD PTR __imp_strcat
$LN7@do_raytrac:
; Line 745
	cmp	DWORD PTR nati_sqrt$[rsp], 0
	jle	SHORT $LN6@do_raytrac
; Line 746
	lea	rdx, OFFSET FLAT:$SG-732
	lea	rcx, QWORD PTR def_string$[rsp]
	call	QWORD PTR __imp_strcat
$LN6@do_raytrac:
; Line 748
	cmp	DWORD PTR buil_dot$[rsp], 0
	jle	SHORT $LN5@do_raytrac
; Line 749
	lea	rdx, OFFSET FLAT:$SG-733
	lea	rcx, QWORD PTR def_string$[rsp]
	call	QWORD PTR __imp_strcat
$LN5@do_raytrac:
; Line 751
	cmp	DWORD PTR buil_len$[rsp], 0
	jle	SHORT $LN4@do_raytrac
; Line 752
	lea	rdx, OFFSET FLAT:$SG-734
	lea	rcx, QWORD PTR def_string$[rsp]
	call	QWORD PTR __imp_strcat
$LN4@do_raytrac:
; Line 755
	mov	eax, DWORD PTR ocl_plat$[rsp]
	mov	DWORD PTR [rsp+56], eax
	mov	rax, QWORD PTR out_pixels$[rsp]
	mov	QWORD PTR [rsp+48], rax
	mov	eax, DWORD PTR n_primitives$[rsp]
	mov	DWORD PTR [rsp+40], eax
	mov	rax, QWORD PTR prim_list$[rsp]
	mov	QWORD PTR [rsp+32], rax
	lea	r9, QWORD PTR def_string$[rsp]
	mov	r8d, DWORD PTR height$[rsp]
	mov	edx, DWORD PTR width$[rsp]
	mov	ecx, DWORD PTR deviceType$[rsp]
	call	?initialize_openCL@@YAHHHHPEADPEAUPrimitive@@HPEATcl_uchar4@@H@Z ; initialize_openCL
	cmp	eax, 1
	jne	SHORT $LN3@do_raytrac
; Line 756
	mov	eax, 1
	jmp	$LN20@do_raytrac
$LN3@do_raytrac:
; Line 758
	call	?get_time@@YANXZ			; get_time
	movsdx	QWORD PTR fstart$[rsp], xmm0
; Line 762
	mov	rax, QWORD PTR out_pixels$[rsp]
	mov	QWORD PTR [rsp+72], rax
	mov	eax, DWORD PTR n_primitives$[rsp]
	mov	DWORD PTR [rsp+64], eax
	mov	eax, DWORD PTR workgroup_size$[rsp]
	mov	DWORD PTR [rsp+56], eax
	movss	xmm0, DWORD PTR viewport_height$[rsp]
	movss	DWORD PTR [rsp+48], xmm0
	movss	xmm0, DWORD PTR viewport_width$[rsp]
	movss	DWORD PTR [rsp+40], xmm0
	movss	xmm0, DWORD PTR camera_z$[rsp]
	movss	DWORD PTR [rsp+32], xmm0
	movss	xmm3, DWORD PTR camera_y$[rsp]
	movss	xmm2, DWORD PTR camera_x$[rsp]
	mov	edx, DWORD PTR height$[rsp]
	mov	ecx, DWORD PTR width$[rsp]
	call	?run_openCL_kernel@@YAHHHMMMMMHHPEATcl_uchar4@@@Z ; run_openCL_kernel
	cmp	eax, 1
	jne	SHORT $LN2@do_raytrac
; Line 763
	mov	eax, 1
	jmp	$LN20@do_raytrac
$LN2@do_raytrac:
; Line 765
	call	?get_time@@YANXZ			; get_time
	movsdx	QWORD PTR ftime$[rsp], xmm0
; Line 767
	call	QWORD PTR __imp___iob_func
	add	rax, 96					; 00000060H
	lea	rdx, OFFSET FLAT:$SG-735
	mov	rcx, rax
	call	QWORD PTR __imp_fprintf
; Line 768
	movsdx	xmm0, QWORD PTR ftime$[rsp]
	subsd	xmm0, QWORD PTR fstart$[rsp]
	movsdx	QWORD PTR tv162[rsp], xmm0
	call	QWORD PTR __imp___iob_func
	add	rax, 96					; 00000060H
	movsdx	xmm0, QWORD PTR tv162[rsp]
	movapd	xmm2, xmm0
	movd	r8, xmm2
	lea	rdx, OFFSET FLAT:$SG-736
	mov	rcx, rax
	call	QWORD PTR __imp_fprintf
; Line 771
	call	?cleanup_openCL@@YAHXZ			; cleanup_openCL
	cmp	eax, 1
	jne	SHORT $LN1@do_raytrac
; Line 772
	mov	eax, 1
	jmp	SHORT $LN20@do_raytrac
$LN1@do_raytrac:
; Line 774
	xor	eax, eax
$LN20@do_raytrac:
; Line 775
	mov	rdi, rax
	mov	rcx, rsp
	lea	rdx, OFFSET FLAT:?do_raytrace_ocl@@YAHPEATcl_uchar4@@PEAUPrimitive@@HHHHHHHHHHHMMMMMH@Z$rtcFrameData
	call	_RTC_CheckStackVars
	mov	rax, rdi
	mov	rcx, QWORD PTR __$ArrayPad$[rsp]
	xor	rcx, rsp
	call	__security_check_cookie
	add	rsp, 288				; 00000120H
	pop	rdi
	ret	0
	npad	3
$LN22@do_raytrac:
	DD	$LN9@do_raytrac
	DD	$LN10@do_raytrac
	DD	$LN11@do_raytrac
	DD	$LN12@do_raytrac
	DD	$LN13@do_raytrac
	DD	$LN14@do_raytrac
?do_raytrace_ocl@@YAHPEATcl_uchar4@@PEAUPrimitive@@HHHHHHHHHHHMMMMMH@Z ENDP ; do_raytrace_ocl
END
